

Microchip MPLAB XC8 Assembler V2.41 build 20230208172133 
                                                                                               Fri Oct 13 17:17:55 2023

Microchip MPLAB XC8 C Compiler v2.41 (Free license) build 20230208172133 Og1 
     1                           	processor	18F46K20
     2                           	fnconf	rparam,??,?,0
     3                           	pagewidth 120
     4                           	opt	flic
     5                           	psect	smallconst,global,reloc=2,class=SMALLCONST,delta=1,noexec
     6                           	psect	nvCOMRAM,global,class=COMRAM,space=1,delta=1,lowdata,noexec
     7                           	psect	cinit,global,reloc=2,class=CODE,delta=1
     8                           	psect	bssCOMRAM,global,class=COMRAM,space=1,delta=1,lowdata,noexec
     9                           	psect	cstackCOMRAM,global,class=COMRAM,space=1,delta=1,lowdata,noexec
    10                           	psect	text0,global,reloc=2,class=CODE,delta=1
    11                           	psect	text1,global,reloc=2,class=CODE,delta=1
    12                           	psect	text2,global,reloc=2,class=CODE,delta=1
    13                           	psect	text3,global,reloc=2,class=CODE,delta=1
    14                           	psect	text4,global,reloc=2,class=CODE,delta=1
    15                           	psect	text5,global,reloc=2,class=CODE,delta=1
    16                           	psect	text6,global,reloc=2,class=CODE,delta=1
    17                           	psect	text7,global,reloc=2,class=CODE,delta=1
    18                           	psect	text8,global,reloc=2,class=CODE,delta=1
    19                           	psect	text9,global,reloc=2,class=CODE,delta=1
    20                           	psect	text10,global,reloc=2,class=CODE,delta=1
    21                           	psect	text11,global,reloc=2,class=CODE,delta=1
    22                           	psect	text12,global,reloc=2,class=CODE,delta=1
    23                           	psect	text13,global,reloc=2,class=CODE,delta=1
    24                           	psect	text14,global,reloc=2,class=CODE,delta=1
    25                           	psect	text15,global,reloc=2,class=CODE,delta=1
    26                           	psect	text16,global,reloc=2,class=CODE,delta=1
    27                           	psect	text17,global,reloc=2,class=CODE,delta=1
    28                           	psect	text18,global,reloc=2,class=CODE,delta=1
    29                           	psect	text19,global,reloc=2,class=CODE,delta=1
    30                           	psect	text20,global,reloc=2,class=CODE,delta=1
    31                           	psect	text21,global,reloc=2,class=CODE,delta=1,inline
    32                           	psect	text22,global,reloc=2,class=CODE,delta=1
    33                           	psect	text23,global,reloc=2,class=CODE,delta=1
    34                           	psect	text24,global,reloc=2,class=CODE,delta=1
    35                           	psect	text25,global,reloc=2,class=CODE,delta=1,inline
    36                           	psect	text26,global,reloc=2,class=CODE,delta=1,inline
    37                           	psect	text27,global,reloc=2,class=CODE,delta=1
    38                           	psect	text28,global,reloc=2,class=CODE,delta=1
    39                           	psect	text29,global,reloc=2,class=CODE,delta=1
    40                           	psect	text30,global,reloc=2,class=CODE,delta=1
    41                           	psect	text31,global,reloc=2,class=CODE,delta=1
    42                           	psect	text32,global,reloc=2,class=CODE,delta=1
    43                           	psect	text33,global,reloc=2,class=CODE,delta=1
    44                           	psect	text34,global,reloc=2,class=CODE,delta=1
    45                           	psect	text35,global,reloc=2,class=CODE,delta=1
    46                           	psect	text36,global,reloc=2,class=CODE,delta=1
    47                           	psect	text37,global,reloc=2,class=CODE,delta=1
    48                           	psect	text38,global,reloc=2,class=CODE,delta=1
    49                           	psect	text39,global,reloc=2,class=CODE,delta=1
    50                           	psect	text40,global,reloc=2,class=CODE,delta=1
    51                           	psect	text41,global,reloc=2,class=CODE,delta=1
    52                           	psect	text42,global,reloc=2,class=CODE,delta=1
    53                           	psect	text43,global,reloc=2,class=CODE,delta=1,inline
    54                           	psect	text44,global,reloc=2,class=CODE,delta=1,inline
    55                           	psect	text45,global,reloc=2,class=CODE,delta=1,inline
    56                           	psect	text46,global,reloc=2,class=CODE,delta=1,inline
    57                           	psect	text47,global,reloc=2,class=CODE,delta=1,inline
    58                           	psect	text48,global,reloc=2,class=CODE,delta=1,inline
    59                           	psect	text49,global,reloc=2,class=CODE,delta=1,inline
    60                           	psect	text50,global,reloc=2,class=CODE,delta=1
    61                           	psect	text51,global,reloc=2,class=CODE,delta=1
    62                           	psect	text52,global,reloc=2,class=CODE,delta=1
    63                           	psect	text53,global,reloc=2,class=CODE,delta=1
    64                           	psect	text54,global,reloc=2,class=CODE,delta=1
    65                           	psect	text55,global,reloc=2,class=CODE,delta=1
    66                           	psect	text56,global,reloc=2,class=CODE,delta=1
    67                           	psect	text57,global,reloc=2,class=CODE,delta=1
    68                           	psect	text58,global,reloc=2,class=CODE,delta=1
    69                           	psect	text59,global,reloc=2,class=CODE,delta=1
    70                           	psect	text60,global,reloc=2,class=CODE,delta=1,inline
    71                           	psect	text61,global,reloc=2,class=CODE,delta=1,inline
    72                           	psect	text62,global,reloc=2,class=CODE,delta=1,inline
    73                           	psect	text63,global,reloc=2,class=CODE,delta=1
    74                           	psect	text64,global,reloc=2,class=CODE,delta=1,inline
    75                           	psect	text65,global,reloc=2,class=CODE,delta=1,inline
    76                           	psect	text66,global,reloc=2,class=CODE,delta=1,inline
    77                           	psect	intsave_regs,global,class=BIGRAM,space=1,delta=1,noexec
    78                           	psect	text67,global,reloc=2,class=CODE,delta=1,inline
    79                           	psect	rparam,global,class=COMRAM,space=1,delta=1,noexec
    80                           	psect	config,global,abs,ovrld,class=CONFIG,space=4,delta=1,noexec
    81   000000                     
    82                           ; Generated 21/07/2023 GMT
    83                           ; 
    84                           ; Copyright © 2023, Microchip Technology Inc. and its subsidiaries ("Microchip")
    85                           ; All rights reserved.
    86                           ; 
    87                           ; This software is developed by Microchip Technology Inc. and its subsidiaries ("Microch
      +                          ip").
    88                           ; 
    89                           ; Redistribution and use in source and binary forms, with or without modification, are
    90                           ; permitted provided that the following conditions are met:
    91                           ; 
    92                           ;     1. Redistributions of source code must retain the above copyright notice, this lis
      +                          t of
    93                           ;        conditions and the following disclaimer.
    94                           ; 
    95                           ;     2. Redistributions in binary form must reproduce the above copyright notice, this 
      +                          list
    96                           ;        of conditions and the following disclaimer in the documentation and/or other
    97                           ;        materials provided with the distribution. Publication is not required when
    98                           ;        this file is used in an embedded application.
    99                           ; 
   100                           ;     3. Microchip's name may not be used to endorse or promote products derived from th
      +                          is
   101                           ;        software without specific prior written permission.
   102                           ; 
   103                           ; THIS SOFTWARE IS PROVIDED BY MICROCHIP "AS IS" AND ANY EXPRESS OR IMPLIED WARRANTIES,
   104                           ; INCLUDING, BUT NOT LIMITED TO, THE IMPLIED WARRANTIES OF MERCHANTABILITY AND FITNESS F
      +                          OR
   105                           ; PURPOSE ARE DISCLAIMED.  IN NO EVENT SHALL MICROCHIP BE LIABLE FOR ANY DIRECT, INDIREC
      +                          T,
   106                           ; INCIDENTAL, SPECIAL, EXEMPLARY, OR CONSEQUENTIAL DAMAGES (INCLUDING BUT NOT LIMITED TO
   107                           ; PROCUREMENT OF SUBSTITUTE GOODS OR SERVICES; LOSS OF USE, DATA OR PROFITS; OR BUSINESS
   108                           ; INTERRUPTION) HOWSOEVER CAUSED AND ON ANY THEORY OF LIABILITY, WHETHER IN CONTRACT, ST
      +                          RICT
   109                           ; LIABILITY, OR TORT (INCLUDING NEGLIGENCE OR OTHERWISE) ARISING IN ANY WAY OUT OF THE U
      +                          SE OF
   110                           ; THIS SOFTWARE, EVEN IF ADVISED OF THE POSSIBILITY OF SUCH DAMAGE.
   111                           ; 
   112                           ; 
   113                           ; Code-generator required, PIC18F46K20 Definitions
   114                           ; 
   115                           ; SFR Addresses
   116   000000                     
   117 ;; Function _EUSART_DefaultFramingErrorHandler is unused but had its address taken
   118   000000                     
   119 ;; Function _EUSART_DefaultOverrunErrorHandler is unused but had its address taken
   120   000000                     
   121 ;; Function _EUSART_DefaultErrorHandler is unused but had its address taken
   122   000000                     
   123                           	psect	smallconst
   124   001000                     __psmallconst:
   125                           	callstack 0
   126   001000  00                 	db	0
   127   001001                     _i2c_fsmStateTable:
   128                           	callstack 0
   129   001001  E4                 	db	low _I2C_DO_IDLE
   130   001002  19                 	db	high _I2C_DO_IDLE
   131   001003  9A                 	db	low _I2C_DO_SEND_ADR_READ
   132   001004  19                 	db	high _I2C_DO_SEND_ADR_READ
   133   001005  8C                 	db	low _I2C_DO_SEND_ADR_WRITE
   134   001006  19                 	db	high _I2C_DO_SEND_ADR_WRITE
   135   001007  32                 	db	low _I2C_DO_TX
   136   001008  10                 	db	high _I2C_DO_TX
   137   001009  F0                 	db	low _I2C_DO_RX
   138   00100A  10                 	db	high _I2C_DO_RX
   139   00100B  DA                 	db	low _I2C_DO_RCEN
   140   00100C  19                 	db	high _I2C_DO_RCEN
   141   00100D  1C                 	db	low _I2C_DO_TX_EMPTY
   142   00100E  13                 	db	high _I2C_DO_TX_EMPTY
   143   00100F  26                 	db	low _I2C_DO_SEND_RESTART_READ
   144   001010  1A                 	db	high _I2C_DO_SEND_RESTART_READ
   145   001011  1E                 	db	low _I2C_DO_SEND_RESTART_WRITE
   146   001012  1A                 	db	high _I2C_DO_SEND_RESTART_WRITE
   147   001013  16                 	db	low _I2C_DO_SEND_RESTART
   148   001014  1A                 	db	high _I2C_DO_SEND_RESTART
   149   001015  0E                 	db	low _I2C_DO_SEND_STOP
   150   001016  1A                 	db	high _I2C_DO_SEND_STOP
   151   001017  06                 	db	low _I2C_DO_RX_ACK
   152   001018  1A                 	db	high _I2C_DO_RX_ACK
   153   001019  FE                 	db	low _I2C_DO_RX_NACK_STOP
   154   00101A  19                 	db	high _I2C_DO_RX_NACK_STOP
   155   00101B  F6                 	db	low _I2C_DO_RX_NACK_RESTART
   156   00101C  19                 	db	high _I2C_DO_RX_NACK_RESTART
   157   00101D  D0                 	db	low _I2C_DO_RESET
   158   00101E  19                 	db	high _I2C_DO_RESET
   159   00101F  CC                 	db	low _I2C_DO_ADDRESS_NACK
   160   001020  15                 	db	high _I2C_DO_ADDRESS_NACK
   161   001021                     __end_of_i2c_fsmStateTable:
   162                           	callstack 0
   163   000000                     _TXREG	set	4013
   164   000000                     _RCREG	set	4014
   165   000000                     _SPBRG	set	4015
   166   000000                     _TXSTA	set	4012
   167   000000                     _RCSTA	set	4011
   168   000000                     _BAUDCON	set	4024
   169   000000                     _SSPCON2	set	4037
   170   000000                     _SSPCON1	set	4038
   171   000000                     _SSPSTAT	set	4039
   172   000000                     _OSCCON	set	4051
   173   000000                     _INTCON2bits	set	4081
   174   000000                     _TRISD	set	3989
   175   000000                     _TRISC	set	3988
   176   000000                     _TRISB	set	3987
   177   000000                     _LATC	set	3979
   178   000000                     _LATB	set	3978
   179   000000                     _EEDATA	set	4008
   180   000000                     _EEADR	set	4009
   181   000000                     _EEADRH	set	4010
   182   000000                     _EECON2	set	4007
   183   001021                     STR_3:
   184   001021  54                 	db	84	;'T'
   185   001022  69                 	db	105	;'i'
   186   001023  6D                 	db	109	;'m'
   187   001024  65                 	db	101	;'e'
   188   001025  3A                 	db	58	;':'
   189   001026  20                 	db	32
   190   001027  00                 	db	0
   191   001028                     STR_1:
   192   001028  44                 	db	68	;'D'
   193   001029  61                 	db	97	;'a'
   194   00102A  74                 	db	116	;'t'
   195   00102B  65                 	db	101	;'e'
   196   00102C  3A                 	db	58	;':'
   197   00102D  20                 	db	32
   198   00102E  00                 	db	0
   199   00102F                     STR_2:
   200   00102F  0D                 	db	13
   201   001030  00                 	db	0
   202   001031  00                 	db	0	; dummy byte at the end
   203   000000                     
   204                           	psect	nvCOMRAM
   205   000047                     __pnvCOMRAM:
   206                           	callstack 0
   207   000047                     _EUSART_ErrorHandler:
   208                           	callstack 0
   209   000047                     	ds	2
   210   000049                     _EUSART_OverrunErrorHandler:
   211                           	callstack 0
   212   000049                     	ds	2
   213   00004B                     _EUSART_FramingErrorHandler:
   214                           	callstack 0
   215   00004B                     	ds	2
   216   000000                     _RCSTAbits	set	4011
   217   000000                     _TXSTAbits	set	4012
   218   000000                     _SSPSTATbits	set	4039
   219   000000                     _SSPCON2bits	set	4037
   220   000000                     _SSPCON1bits	set	4038
   221   000000                     _WPUB	set	3964
   222   000000                     _ANSEL	set	3966
   223   000000                     _LATA	set	3977
   224   000000                     _LATD	set	3980
   225   000000                     _LATE	set	3981
   226   000000                     _PIR2bits	set	4001
   227   000000                     _EECON1bits	set	4006
   228   000000                     _INTCONbits	set	4082
   229   000000                     _TABLAT	set	4085
   230   000000                     _TBLPTRL	set	4086
   231   000000                     _TBLPTRH	set	4087
   232   000000                     _TBLPTRU	set	4088
   233   000000                     _TRISA	set	3986
   234   000000                     _TRISE	set	3990
   235   000000                     _OSCTUNE	set	3995
   236   000000                     _ANSELH	set	3967
   237   000000                     _PIE1bits	set	3997
   238   000000                     _SSPBUF	set	4041
   239   000000                     _SSPADD	set	4040
   240   000000                     _PIR1bits	set	3998
   241   000000                     _SPBRGH	set	4016
   242                           
   243                           ; #config settings
   244                           
   245                           	psect	cinit
   246   001934                     __pcinit:
   247                           	callstack 0
   248   001934                     start_initialization:
   249                           	callstack 0
   250   001934                     __initialization:
   251                           	callstack 0
   252                           
   253                           ; Clear objects allocated to COMRAM (43 bytes)
   254   001934  EE00  F001         	lfsr	0,__pbssCOMRAM
   255   001938  0E2B               	movlw	43
   256   00193A                     clear_0:
   257   00193A  6AEE               	clrf	postinc0,c
   258   00193C  06E8               	decf	wreg,f,c
   259   00193E  E1FD               	bnz	clear_0
   260   001940                     end_of_initialization:
   261                           	callstack 0
   262   001940                     __end_of__initialization:
   263                           	callstack 0
   264   001940  0100               	movlb	0
   265   001942  EF10  F009         	goto	_main	;jump to C main() function
   266                           
   267                           	psect	bssCOMRAM
   268   000001                     __pbssCOMRAM:
   269                           	callstack 0
   270   000001                     _I2C_Status:
   271                           	callstack 0
   272   000001                     	ds	36
   273   000025                     _rtc_received:
   274                           	callstack 0
   275   000025                     	ds	6
   276   00002B                     _eusartRxLastError:
   277                           	callstack 0
   278   00002B                     	ds	1
   279                           
   280                           	psect	cstackCOMRAM
   281   00002C                     __pcstackCOMRAM:
   282                           	callstack 0
   283   00002C                     I2C_Open@address:
   284                           	callstack 0
   285   00002C                     I2C_Close@returnValue:
   286                           	callstack 0
   287   00002C                     I2C_MasterSendTxData@data:
   288                           	callstack 0
   289   00002C                     EUSART_Write@txData:
   290                           	callstack 0
   291   00002C                     I2C_SetBuffer@buffer:
   292                           	callstack 0
   293   00002C                     I2C_SetCallback@cb:
   294                           	callstack 0
   295   00002C                     EUSART_SetFramingErrorHandler@interruptHandler:
   296                           	callstack 0
   297   00002C                     EUSART_SetOverrunErrorHandler@interruptHandler:
   298                           	callstack 0
   299   00002C                     EUSART_SetErrorHandler@interruptHandler:
   300                           	callstack 0
   301                           
   302                           ; 2 bytes @ 0x0
   303   00002C                     	ds	1
   304   00002D                     I2C_Open@returnValue:
   305                           	callstack 0
   306   00002D                     BCD_UART_Print@data:
   307                           	callstack 0
   308   00002D                     EUSART_Write_String@str:
   309                           	callstack 0
   310                           
   311                           ; 2 bytes @ 0x1
   312   00002D                     	ds	1
   313   00002E                     I2C_SetBuffer@bufferSize:
   314                           	callstack 0
   315   00002E                     I2C_SetCallback@ptr:
   316                           	callstack 0
   317                           
   318                           ; 2 bytes @ 0x2
   319   00002E                     	ds	1
   320   00002F                     
   321                           ; 1 bytes @ 0x3
   322   00002F                     	ds	1
   323   000030                     I2C_SetCallback@idx:
   324                           	callstack 0
   325                           
   326                           ; 1 bytes @ 0x4
   327   000030                     	ds	1
   328   000031                     I2C_SetDataCompleteCallback@cb:
   329                           	callstack 0
   330   000031                     I2C_SetAddressNackCallback@cb:
   331                           	callstack 0
   332                           
   333                           ; 2 bytes @ 0x5
   334   000031                     	ds	2
   335   000033                     I2C_SetDataCompleteCallback@ptr:
   336                           	callstack 0
   337   000033                     I2C_SetAddressNackCallback@ptr:
   338                           	callstack 0
   339                           
   340                           ; 2 bytes @ 0x7
   341   000033                     	ds	2
   342   000035                     rd1RegCompleteHandler@ptr:
   343                           	callstack 0
   344   000035                     rd2RegCompleteHandler@ptr:
   345                           	callstack 0
   346   000035                     wr1RegCompleteHandler@ptr:
   347                           	callstack 0
   348   000035                     wr2RegCompleteHandler@ptr:
   349                           	callstack 0
   350   000035                     rdBlkRegCompleteHandler@ptr:
   351                           	callstack 0
   352   000035                     I2C_CallbackReturnReset@funPtr:
   353                           	callstack 0
   354                           
   355                           ; 2 bytes @ 0x9
   356   000035                     	ds	2
   357   000037                     ??_I2C_DO_TX:
   358   000037                     ??_I2C_DO_RX:
   359   000037                     ??_I2C_DO_TX_EMPTY:
   360   000037                     ??_I2C_DO_ADDRESS_NACK:
   361   000037                     
   362                           ; 1 bytes @ 0xB
   363   000037                     	ds	2
   364   000039                     ??_I2C_MasterFsm:
   365                           
   366                           ; 1 bytes @ 0xD
   367   000039                     	ds	2
   368   00003B                     I2C_MasterOperation@read:
   369                           	callstack 0
   370                           
   371                           ; 1 bytes @ 0xF
   372   00003B                     	ds	1
   373   00003C                     I2C_MasterOperation@returnValue:
   374                           	callstack 0
   375                           
   376                           ; 1 bytes @ 0x10
   377   00003C                     	ds	1
   378   00003D                     I2C_Read1ByteRegister@reg:
   379                           	callstack 0
   380   00003D                     I2C_Write1ByteRegister@reg:
   381                           	callstack 0
   382                           
   383                           ; 1 bytes @ 0x11
   384   00003D                     	ds	1
   385   00003E                     I2C_Read1ByteRegister@address:
   386                           	callstack 0
   387   00003E                     I2C_Write1ByteRegister@data:
   388                           	callstack 0
   389                           
   390                           ; 1 bytes @ 0x12
   391   00003E                     	ds	1
   392   00003F                     I2C_Read1ByteRegister@returnValue:
   393                           	callstack 0
   394   00003F                     I2C_Write1ByteRegister@address:
   395                           	callstack 0
   396                           
   397                           ; 1 bytes @ 0x13
   398   00003F                     	ds	1
   399   000040                     EXT_EEPROM_24C02C_write@location_address:
   400                           	callstack 0
   401   000040                     EXT_EEPROM_24C02C_read@location_address:
   402                           	callstack 0
   403   000040                     RTC_DS1307_receive_values@slave_address:
   404                           	callstack 0
   405   000040                     TEMPSENSOR_TC47_Read@slave_address:
   406                           	callstack 0
   407                           
   408                           ; 1 bytes @ 0x14
   409   000040                     	ds	1
   410   000041                     EXT_EEPROM_24C02C_write@data:
   411                           	callstack 0
   412   000041                     EXT_EEPROM_24C02C_read@slave_address:
   413                           	callstack 0
   414   000041                     RTC_DS1307_print@slave_address:
   415                           	callstack 0
   416   000041                     TEMPSENSOR_TC47_Read@value:
   417                           	callstack 0
   418                           
   419                           ; 1 bytes @ 0x15
   420   000041                     	ds	1
   421   000042                     EXT_EEPROM_24C02C_write@slave_address:
   422                           	callstack 0
   423   000042                     EXT_EEPROM_24C02C_read@data:
   424                           	callstack 0
   425                           
   426                           ; 1 bytes @ 0x16
   427   000042                     	ds	1
   428   000043                     ??_main:
   429                           
   430                           ; 1 bytes @ 0x17
   431   000043                     	ds	2
   432   000045                     main@TempSensor_Val:
   433                           	callstack 0
   434                           
   435                           ; 1 bytes @ 0x19
   436   000045                     	ds	1
   437   000046                     main@Temp_Set_Value:
   438                           	callstack 0
   439                           
   440                           ; 1 bytes @ 0x1A
   441   000046                     	ds	1
   442                           
   443 ;;
   444 ;;Main: autosize = 0, tempsize = 2, incstack = 0, save=0
   445 ;;
   446 ;; *************** function _main *****************
   447 ;; Defined at:
   448 ;;		line 56 in file "main.c"
   449 ;; Parameters:    Size  Location     Type
   450 ;;		None
   451 ;; Auto vars:     Size  Location     Type
   452 ;;  Temp_Set_Val    1   26[COMRAM] unsigned char 
   453 ;;  TempSensor_V    1   25[COMRAM] unsigned char 
   454 ;; Return value:  Size  Location     Type
   455 ;;                  1    wreg      void 
   456 ;; Registers used:
   457 ;;		wreg, fsr2l, fsr2h, status,2, status,0, pcl, pclath, pclatu, tosl, tblptrl, tblptrh, tblptru, prodl, prodh, cstack
   458 ;; Tracked objects:
   459 ;;		On entry : 0/0
   460 ;;		On exit  : 0/0
   461 ;;		Unchanged: 0/0
   462 ;; Data sizes:     COMRAM   BANK0   BANK1   BANK2   BANK3   BANK4   BANK5   BANK6   BANK7   BANK8   BANK9  BANK10  BANK1
      +1  BANK12  BANK13  BANK14  BANK15
   463 ;;      Params:         0       0       0       0       0       0       0       0       0       0       0       0       
      +0       0       0       0       0
   464 ;;      Locals:         2       0       0       0       0       0       0       0       0       0       0       0       
      +0       0       0       0       0
   465 ;;      Temps:          2       0       0       0       0       0       0       0       0       0       0       0       
      +0       0       0       0       0
   466 ;;      Totals:         4       0       0       0       0       0       0       0       0       0       0       0       
      +0       0       0       0       0
   467 ;;Total ram usage:        4 bytes
   468 ;; Hardware stack levels required when called: 11
   469 ;; This function calls:
   470 ;;		_EXT_EEPROM_24C02C_read
   471 ;;		_EXT_EEPROM_24C02C_write
   472 ;;		_I2C_Write1ByteRegister
   473 ;;		_RTC_DS1307_print
   474 ;;		_SYSTEM_Initialize
   475 ;;		_TEMPSENSOR_TC47_Read
   476 ;; This function is called by:
   477 ;;		Startup code after reset
   478 ;; This function uses a non-reentrant model
   479 ;;
   480                           
   481                           	psect	text0
   482   001220                     __ptext0:
   483                           	callstack 0
   484   001220                     _main:
   485                           	callstack 20
   486   001220                     
   487                           ;main.c: 59:     SYSTEM_Initialize();
   488   001220  ECA3  F00C         	call	_SYSTEM_Initialize	;wreg free
   489   001224                     
   490                           ;main.c: 78:     EXT_EEPROM_24C02C_write(0x51,0x00,Temp_Set_Value);
   491   001224  0E00               	movlw	0
   492   001226  6E40               	movwf	EXT_EEPROM_24C02C_write@location_address^0,c
   493   001228  0E19               	movlw	25
   494   00122A  6E41               	movwf	EXT_EEPROM_24C02C_write@data^0,c
   495   00122C  0E51               	movlw	81
   496   00122E  ECAC  F00C         	call	_EXT_EEPROM_24C02C_write
   497   001232                     l2730:
   498                           
   499                           ;main.c: 83:     {;main.c: 84:         RTC_DS1307_print(0x68);
   500   001232  0E68               	movlw	104
   501   001234  ECCB  F009         	call	_RTC_DS1307_print
   502   001238                     
   503                           ;main.c: 85:         TempSensor_Val = TEMPSENSOR_TC47_Read(0x4F);
   504   001238  0E4F               	movlw	79
   505   00123A  EC4A  F00C         	call	_TEMPSENSOR_TC47_Read
   506   00123E  6E45               	movwf	main@TempSensor_Val^0,c
   507   001240                     
   508                           ;main.c: 86:         Temp_Set_Value = EXT_EEPROM_24C02C_read(0x51,0x00);
   509   001240  0E00               	movlw	0
   510   001242  6E40               	movwf	EXT_EEPROM_24C02C_read@location_address^0,c
   511   001244  0E51               	movlw	81
   512   001246  ECB5  F00C         	call	_EXT_EEPROM_24C02C_read
   513   00124A  6E46               	movwf	main@Temp_Set_Value^0,c
   514   00124C                     
   515                           ;main.c: 87:         if(TempSensor_Val >Temp_Set_Value){
   516   00124C  5045               	movf	main@TempSensor_Val^0,w,c
   517   00124E  5C46               	subwf	main@Temp_Set_Value^0,w,c
   518   001250  B0D8               	btfsc	status,0,c
   519   001252  EF2D  F009         	goto	u871
   520   001256  EF2F  F009         	goto	u870
   521   00125A                     u871:
   522   00125A  EF38  F009         	goto	l2740
   523   00125E                     u870:
   524   00125E                     
   525                           ;main.c: 88:             I2C_Write1ByteRegister(0x60,0x00,'o');
   526   00125E  0E00               	movlw	0
   527   001260  6E3D               	movwf	I2C_Write1ByteRegister@reg^0,c
   528   001262  0E6F               	movlw	111
   529   001264  6E3E               	movwf	I2C_Write1ByteRegister@data^0,c
   530   001266  0E60               	movlw	96
   531   001268  EC7B  F00A         	call	_I2C_Write1ByteRegister
   532                           
   533                           ;main.c: 90:         }
   534   00126C  EF3F  F009         	goto	l2742
   535   001270                     l2740:
   536                           
   537                           ;main.c: 92:             I2C_Write1ByteRegister(0x60,0x00,'c');
   538   001270  0E00               	movlw	0
   539   001272  6E3D               	movwf	I2C_Write1ByteRegister@reg^0,c
   540   001274  0E63               	movlw	99
   541   001276  6E3E               	movwf	I2C_Write1ByteRegister@data^0,c
   542   001278  0E60               	movlw	96
   543   00127A  EC7B  F00A         	call	_I2C_Write1ByteRegister
   544   00127E                     l2742:
   545                           
   546                           ;main.c: 95:         _delay((unsigned long)((1000)*(16000000/4000.0)));
   547   00127E  0E15               	movlw	21
   548   001280  6E44               	movwf	(??_main+1)^0,c
   549   001282  0E4B               	movlw	75
   550   001284  6E43               	movwf	??_main^0,c
   551   001286  0EBE               	movlw	190
   552   001288                     u887:
   553   001288  2EE8               	decfsz	wreg,f,c
   554   00128A  D7FE               	bra	u887
   555   00128C  2E43               	decfsz	??_main^0,f,c
   556   00128E  D7FC               	bra	u887
   557   001290  2E44               	decfsz	(??_main+1)^0,f,c
   558   001292  D7FA               	bra	u887
   559   001294  F000 F000          	nop2	
   560   001298  EF19  F009         	goto	l2730
   561   00129C  EF00  F000         	goto	start
   562   0012A0                     __end_of_main:
   563                           	callstack 0
   564                           
   565 ;; *************** function _TEMPSENSOR_TC47_Read *****************
   566 ;; Defined at:
   567 ;;		line 9 in file "ECUAL/TempSensor_TC47/tempsensor_tc47.c"
   568 ;; Parameters:    Size  Location     Type
   569 ;;  slave_addres    1    wreg     unsigned char 
   570 ;; Auto vars:     Size  Location     Type
   571 ;;  slave_addres    1   20[COMRAM] unsigned char 
   572 ;;  value           1   21[COMRAM] unsigned char 
   573 ;; Return value:  Size  Location     Type
   574 ;;                  1    wreg      unsigned char 
   575 ;; Registers used:
   576 ;;		wreg, fsr2l, fsr2h, status,2, status,0, pcl, pclath, pclatu, tosl, tblptrl, tblptrh, tblptru, prodl, prodh, cstack
   577 ;; Tracked objects:
   578 ;;		On entry : 0/0
   579 ;;		On exit  : 0/0
   580 ;;		Unchanged: 0/0
   581 ;; Data sizes:     COMRAM   BANK0   BANK1   BANK2   BANK3   BANK4   BANK5   BANK6   BANK7   BANK8   BANK9  BANK10  BANK1
      +1  BANK12  BANK13  BANK14  BANK15
   582 ;;      Params:         0       0       0       0       0       0       0       0       0       0       0       0       
      +0       0       0       0       0
   583 ;;      Locals:         2       0       0       0       0       0       0       0       0       0       0       0       
      +0       0       0       0       0
   584 ;;      Temps:          0       0       0       0       0       0       0       0       0       0       0       0       
      +0       0       0       0       0
   585 ;;      Totals:         2       0       0       0       0       0       0       0       0       0       0       0       
      +0       0       0       0       0
   586 ;;Total ram usage:        2 bytes
   587 ;; Hardware stack levels used: 1
   588 ;; Hardware stack levels required when called: 9
   589 ;; This function calls:
   590 ;;		_I2C_Read1ByteRegister
   591 ;; This function is called by:
   592 ;;		_main
   593 ;; This function uses a non-reentrant model
   594 ;;
   595                           
   596                           	psect	text1
   597   001894                     __ptext1:
   598                           	callstack 0
   599   001894                     _TEMPSENSOR_TC47_Read:
   600                           	callstack 21
   601                           
   602                           ;incstack = 0
   603                           ;TEMPSENSOR_TC47_Read@slave_address stored from wreg
   604   001894  6E40               	movwf	TEMPSENSOR_TC47_Read@slave_address^0,c
   605   001896                     
   606                           ;ECUAL/TempSensor_TC47/tempsensor_tc47.c: 11:     value = I2C_Read1ByteRegister(slave_ad
      +                          dress,0x00);
   607   001896  0E00               	movlw	0
   608   001898  6E3D               	movwf	I2C_Read1ByteRegister@reg^0,c
   609   00189A  5040               	movf	TEMPSENSOR_TC47_Read@slave_address^0,w,c
   610   00189C  EC41  F00A         	call	_I2C_Read1ByteRegister
   611   0018A0  6E41               	movwf	TEMPSENSOR_TC47_Read@value^0,c
   612   0018A2                     
   613                           ;ECUAL/TempSensor_TC47/tempsensor_tc47.c: 12:     _delay((unsigned long)((100)*(16000000
      +                          /4000000.0)));
   614   0018A2  0E85               	movlw	133
   615   0018A4                     u897:
   616   0018A4  2EE8               	decfsz	wreg,f,c
   617   0018A6  D7FE               	bra	u897
   618   0018A8  F000               	nop	
   619   0018AA                     
   620                           ;ECUAL/TempSensor_TC47/tempsensor_tc47.c: 14:     return value;
   621   0018AA  5041               	movf	TEMPSENSOR_TC47_Read@value^0,w,c
   622   0018AC  0012               	return		;funcret
   623   0018AE                     __end_of_TEMPSENSOR_TC47_Read:
   624                           	callstack 0
   625                           
   626 ;; *************** function _SYSTEM_Initialize *****************
   627 ;; Defined at:
   628 ;;		line 50 in file "mcc_generated_files/mcc.c"
   629 ;; Parameters:    Size  Location     Type
   630 ;;		None
   631 ;; Auto vars:     Size  Location     Type
   632 ;;		None
   633 ;; Return value:  Size  Location     Type
   634 ;;                  1    wreg      void 
   635 ;; Registers used:
   636 ;;		wreg, status,2, status,0, cstack
   637 ;; Tracked objects:
   638 ;;		On entry : 0/0
   639 ;;		On exit  : 0/0
   640 ;;		Unchanged: 0/0
   641 ;; Data sizes:     COMRAM   BANK0   BANK1   BANK2   BANK3   BANK4   BANK5   BANK6   BANK7   BANK8   BANK9  BANK10  BANK1
      +1  BANK12  BANK13  BANK14  BANK15
   642 ;;      Params:         0       0       0       0       0       0       0       0       0       0       0       0       
      +0       0       0       0       0
   643 ;;      Locals:         0       0       0       0       0       0       0       0       0       0       0       0       
      +0       0       0       0       0
   644 ;;      Temps:          0       0       0       0       0       0       0       0       0       0       0       0       
      +0       0       0       0       0
   645 ;;      Totals:         0       0       0       0       0       0       0       0       0       0       0       0       
      +0       0       0       0       0
   646 ;;Total ram usage:        0 bytes
   647 ;; Hardware stack levels used: 1
   648 ;; Hardware stack levels required when called: 2
   649 ;; This function calls:
   650 ;;		_EUSART_Initialize
   651 ;;		_I2C_Initialize
   652 ;;		_OSCILLATOR_Initialize
   653 ;;		_PIN_MANAGER_Initialize
   654 ;; This function is called by:
   655 ;;		_main
   656 ;; This function uses a non-reentrant model
   657 ;;
   658                           
   659                           	psect	text2
   660   001946                     __ptext2:
   661                           	callstack 0
   662   001946                     _SYSTEM_Initialize:
   663                           	callstack 28
   664   001946                     
   665                           ;mcc_generated_files/mcc.c: 53:     I2C_Initialize();
   666   001946  EC86  F00C         	call	_I2C_Initialize	;wreg free
   667                           
   668                           ;mcc_generated_files/mcc.c: 54:     PIN_MANAGER_Initialize();
   669   00194A  EC95  F00B         	call	_PIN_MANAGER_Initialize	;wreg free
   670                           
   671                           ;mcc_generated_files/mcc.c: 55:     OSCILLATOR_Initialize();
   672   00194E  ECD4  F00C         	call	_OSCILLATOR_Initialize	;wreg free
   673   001952                     
   674                           ;mcc_generated_files/mcc.c: 56:     EUSART_Initialize();
   675   001952  EC59  F00B         	call	_EUSART_Initialize	;wreg free
   676   001956  0012               	return		;funcret
   677   001958                     __end_of_SYSTEM_Initialize:
   678                           	callstack 0
   679                           
   680 ;; *************** function _PIN_MANAGER_Initialize *****************
   681 ;; Defined at:
   682 ;;		line 55 in file "mcc_generated_files/pin_manager.c"
   683 ;; Parameters:    Size  Location     Type
   684 ;;		None
   685 ;; Auto vars:     Size  Location     Type
   686 ;;		None
   687 ;; Return value:  Size  Location     Type
   688 ;;                  1    wreg      void 
   689 ;; Registers used:
   690 ;;		wreg, status,2
   691 ;; Tracked objects:
   692 ;;		On entry : 0/0
   693 ;;		On exit  : 0/0
   694 ;;		Unchanged: 0/0
   695 ;; Data sizes:     COMRAM   BANK0   BANK1   BANK2   BANK3   BANK4   BANK5   BANK6   BANK7   BANK8   BANK9  BANK10  BANK1
      +1  BANK12  BANK13  BANK14  BANK15
   696 ;;      Params:         0       0       0       0       0       0       0       0       0       0       0       0       
      +0       0       0       0       0
   697 ;;      Locals:         0       0       0       0       0       0       0       0       0       0       0       0       
      +0       0       0       0       0
   698 ;;      Temps:          0       0       0       0       0       0       0       0       0       0       0       0       
      +0       0       0       0       0
   699 ;;      Totals:         0       0       0       0       0       0       0       0       0       0       0       0       
      +0       0       0       0       0
   700 ;;Total ram usage:        0 bytes
   701 ;; Hardware stack levels used: 1
   702 ;; This function calls:
   703 ;;		Nothing
   704 ;; This function is called by:
   705 ;;		_SYSTEM_Initialize
   706 ;; This function uses a non-reentrant model
   707 ;;
   708                           
   709                           	psect	text3
   710   00172A                     __ptext3:
   711                           	callstack 0
   712   00172A                     _PIN_MANAGER_Initialize:
   713                           	callstack 29
   714   00172A                     
   715                           ;mcc_generated_files/pin_manager.c: 60:     LATE = 0x00;
   716   00172A  0E00               	movlw	0
   717   00172C  6E8D               	movwf	141,c	;volatile
   718                           
   719                           ;mcc_generated_files/pin_manager.c: 61:     LATD = 0x00;
   720   00172E  0E00               	movlw	0
   721   001730  6E8C               	movwf	140,c	;volatile
   722                           
   723                           ;mcc_generated_files/pin_manager.c: 62:     LATA = 0x00;
   724   001732  0E00               	movlw	0
   725   001734  6E89               	movwf	137,c	;volatile
   726                           
   727                           ;mcc_generated_files/pin_manager.c: 63:     LATB = 0x00;
   728   001736  0E00               	movlw	0
   729   001738  6E8A               	movwf	138,c	;volatile
   730                           
   731                           ;mcc_generated_files/pin_manager.c: 64:     LATC = 0x00;
   732   00173A  0E00               	movlw	0
   733   00173C  6E8B               	movwf	139,c	;volatile
   734                           
   735                           ;mcc_generated_files/pin_manager.c: 69:     TRISE = 0x07;
   736   00173E  0E07               	movlw	7
   737   001740  6E96               	movwf	150,c	;volatile
   738   001742                     
   739                           ;mcc_generated_files/pin_manager.c: 70:     TRISA = 0xFF;
   740   001742  6892               	setf	146,c	;volatile
   741   001744                     
   742                           ;mcc_generated_files/pin_manager.c: 71:     TRISB = 0xFF;
   743   001744  6893               	setf	147,c	;volatile
   744                           
   745                           ;mcc_generated_files/pin_manager.c: 72:     TRISC = 0xBF;
   746   001746  0EBF               	movlw	191
   747   001748  6E94               	movwf	148,c	;volatile
   748   00174A                     
   749                           ;mcc_generated_files/pin_manager.c: 73:     TRISD = 0xFF;
   750   00174A  6895               	setf	149,c	;volatile
   751   00174C                     
   752                           ;mcc_generated_files/pin_manager.c: 78:     ANSEL = 0xFF;
   753   00174C  687E               	setf	126,c	;volatile
   754                           
   755                           ;mcc_generated_files/pin_manager.c: 79:     ANSELH = 0x1F;
   756   00174E  0E1F               	movlw	31
   757   001750  6E7F               	movwf	127,c	;volatile
   758                           
   759                           ;mcc_generated_files/pin_manager.c: 84:     WPUB = 0x00;
   760   001752  0E00               	movlw	0
   761   001754  6E7C               	movwf	124,c	;volatile
   762   001756                     
   763                           ;mcc_generated_files/pin_manager.c: 85:     INTCON2bits.nRBPU = 1;
   764   001756  8EF1               	bsf	241,7,c	;volatile
   765   001758  0012               	return		;funcret
   766   00175A                     __end_of_PIN_MANAGER_Initialize:
   767                           	callstack 0
   768                           
   769 ;; *************** function _OSCILLATOR_Initialize *****************
   770 ;; Defined at:
   771 ;;		line 59 in file "mcc_generated_files/mcc.c"
   772 ;; Parameters:    Size  Location     Type
   773 ;;		None
   774 ;; Auto vars:     Size  Location     Type
   775 ;;		None
   776 ;; Return value:  Size  Location     Type
   777 ;;                  1    wreg      void 
   778 ;; Registers used:
   779 ;;		wreg, status,2
   780 ;; Tracked objects:
   781 ;;		On entry : 0/0
   782 ;;		On exit  : 0/0
   783 ;;		Unchanged: 0/0
   784 ;; Data sizes:     COMRAM   BANK0   BANK1   BANK2   BANK3   BANK4   BANK5   BANK6   BANK7   BANK8   BANK9  BANK10  BANK1
      +1  BANK12  BANK13  BANK14  BANK15
   785 ;;      Params:         0       0       0       0       0       0       0       0       0       0       0       0       
      +0       0       0       0       0
   786 ;;      Locals:         0       0       0       0       0       0       0       0       0       0       0       0       
      +0       0       0       0       0
   787 ;;      Temps:          0       0       0       0       0       0       0       0       0       0       0       0       
      +0       0       0       0       0
   788 ;;      Totals:         0       0       0       0       0       0       0       0       0       0       0       0       
      +0       0       0       0       0
   789 ;;Total ram usage:        0 bytes
   790 ;; Hardware stack levels used: 1
   791 ;; This function calls:
   792 ;;		Nothing
   793 ;; This function is called by:
   794 ;;		_SYSTEM_Initialize
   795 ;; This function uses a non-reentrant model
   796 ;;
   797                           
   798                           	psect	text4
   799   0019A8                     __ptext4:
   800                           	callstack 0
   801   0019A8                     _OSCILLATOR_Initialize:
   802                           	callstack 29
   803   0019A8                     
   804                           ;mcc_generated_files/mcc.c: 62:     OSCCON = 0x30;
   805   0019A8  0E30               	movlw	48
   806   0019AA  6ED3               	movwf	211,c	;volatile
   807                           
   808                           ;mcc_generated_files/mcc.c: 64:     OSCTUNE = 0x00;
   809   0019AC  0E00               	movlw	0
   810   0019AE  6E9B               	movwf	155,c	;volatile
   811   0019B0  0012               	return		;funcret
   812   0019B2                     __end_of_OSCILLATOR_Initialize:
   813                           	callstack 0
   814                           
   815 ;; *************** function _I2C_Initialize *****************
   816 ;; Defined at:
   817 ;;		line 167 in file "mcc_generated_files/i2c_master.c"
   818 ;; Parameters:    Size  Location     Type
   819 ;;		None
   820 ;; Auto vars:     Size  Location     Type
   821 ;;		None
   822 ;; Return value:  Size  Location     Type
   823 ;;                  1    wreg      void 
   824 ;; Registers used:
   825 ;;		wreg, status,2
   826 ;; Tracked objects:
   827 ;;		On entry : 0/0
   828 ;;		On exit  : 0/0
   829 ;;		Unchanged: 0/0
   830 ;; Data sizes:     COMRAM   BANK0   BANK1   BANK2   BANK3   BANK4   BANK5   BANK6   BANK7   BANK8   BANK9  BANK10  BANK1
      +1  BANK12  BANK13  BANK14  BANK15
   831 ;;      Params:         0       0       0       0       0       0       0       0       0       0       0       0       
      +0       0       0       0       0
   832 ;;      Locals:         0       0       0       0       0       0       0       0       0       0       0       0       
      +0       0       0       0       0
   833 ;;      Temps:          0       0       0       0       0       0       0       0       0       0       0       0       
      +0       0       0       0       0
   834 ;;      Totals:         0       0       0       0       0       0       0       0       0       0       0       0       
      +0       0       0       0       0
   835 ;;Total ram usage:        0 bytes
   836 ;; Hardware stack levels used: 1
   837 ;; This function calls:
   838 ;;		Nothing
   839 ;; This function is called by:
   840 ;;		_SYSTEM_Initialize
   841 ;; This function uses a non-reentrant model
   842 ;;
   843                           
   844                           	psect	text5
   845   00190C                     __ptext5:
   846                           	callstack 0
   847   00190C                     _I2C_Initialize:
   848                           	callstack 29
   849   00190C                     
   850                           ;mcc_generated_files/i2c_master.c: 169:     SSPSTAT = 0x80;
   851   00190C  0E80               	movlw	128
   852   00190E  6EC7               	movwf	199,c	;volatile
   853                           
   854                           ;mcc_generated_files/i2c_master.c: 170:     SSPCON1 = 0x08;
   855   001910  0E08               	movlw	8
   856   001912  6EC6               	movwf	198,c	;volatile
   857                           
   858                           ;mcc_generated_files/i2c_master.c: 171:     SSPCON2 = 0x00;
   859   001914  0E00               	movlw	0
   860   001916  6EC5               	movwf	197,c	;volatile
   861                           
   862                           ;mcc_generated_files/i2c_master.c: 172:     SSPADD = 0x27;
   863   001918  0E27               	movlw	39
   864   00191A  6EC8               	movwf	200,c	;volatile
   865   00191C                     
   866                           ;mcc_generated_files/i2c_master.c: 173:     SSPCON1bits.SSPEN = 0;
   867   00191C  9AC6               	bcf	198,5,c	;volatile
   868   00191E  0012               	return		;funcret
   869   001920                     __end_of_I2C_Initialize:
   870                           	callstack 0
   871                           
   872 ;; *************** function _EUSART_Initialize *****************
   873 ;; Defined at:
   874 ;;		line 66 in file "mcc_generated_files/eusart.c"
   875 ;; Parameters:    Size  Location     Type
   876 ;;		None
   877 ;; Auto vars:     Size  Location     Type
   878 ;;		None
   879 ;; Return value:  Size  Location     Type
   880 ;;                  1    wreg      void 
   881 ;; Registers used:
   882 ;;		wreg, status,2, status,0, cstack
   883 ;; Tracked objects:
   884 ;;		On entry : 0/0
   885 ;;		On exit  : 0/0
   886 ;;		Unchanged: 0/0
   887 ;; Data sizes:     COMRAM   BANK0   BANK1   BANK2   BANK3   BANK4   BANK5   BANK6   BANK7   BANK8   BANK9  BANK10  BANK1
      +1  BANK12  BANK13  BANK14  BANK15
   888 ;;      Params:         0       0       0       0       0       0       0       0       0       0       0       0       
      +0       0       0       0       0
   889 ;;      Locals:         0       0       0       0       0       0       0       0       0       0       0       0       
      +0       0       0       0       0
   890 ;;      Temps:          0       0       0       0       0       0       0       0       0       0       0       0       
      +0       0       0       0       0
   891 ;;      Totals:         0       0       0       0       0       0       0       0       0       0       0       0       
      +0       0       0       0       0
   892 ;;Total ram usage:        0 bytes
   893 ;; Hardware stack levels used: 1
   894 ;; Hardware stack levels required when called: 1
   895 ;; This function calls:
   896 ;;		_EUSART_SetErrorHandler
   897 ;;		_EUSART_SetFramingErrorHandler
   898 ;;		_EUSART_SetOverrunErrorHandler
   899 ;; This function is called by:
   900 ;;		_SYSTEM_Initialize
   901 ;; This function uses a non-reentrant model
   902 ;;
   903                           
   904                           	psect	text6
   905   0016B2                     __ptext6:
   906                           	callstack 0
   907   0016B2                     _EUSART_Initialize:
   908                           	callstack 28
   909   0016B2                     
   910                           ;mcc_generated_files/eusart.c: 71:     BAUDCON = 0x18;
   911   0016B2  0E18               	movlw	24
   912   0016B4  6EB8               	movwf	184,c	;volatile
   913                           
   914                           ;mcc_generated_files/eusart.c: 74:     RCSTA = 0x90;
   915   0016B6  0E90               	movlw	144
   916   0016B8  6EAB               	movwf	171,c	;volatile
   917                           
   918                           ;mcc_generated_files/eusart.c: 77:     TXSTA = 0x24;
   919   0016BA  0E24               	movlw	36
   920   0016BC  6EAC               	movwf	172,c	;volatile
   921                           
   922                           ;mcc_generated_files/eusart.c: 80:     SPBRG = 0xA0;
   923   0016BE  0EA0               	movlw	160
   924   0016C0  6EAF               	movwf	175,c	;volatile
   925                           
   926                           ;mcc_generated_files/eusart.c: 83:     SPBRGH = 0x01;
   927   0016C2  0E01               	movlw	1
   928   0016C4  6EB0               	movwf	176,c	;volatile
   929   0016C6                     
   930                           ;mcc_generated_files/eusart.c: 86:     EUSART_SetFramingErrorHandler(EUSART_DefaultFrami
      +                          ngErrorHandler);
   931   0016C6  0E00               	movlw	0
   932   0016C8  6E2C               	movwf	EUSART_SetFramingErrorHandler@interruptHandler^0,c
   933   0016CA  0E00               	movlw	0
   934   0016CC  6E2D               	movwf	(EUSART_SetFramingErrorHandler@interruptHandler+1)^0,c
   935   0016CE  ECDE  F00C         	call	_EUSART_SetFramingErrorHandler	;wreg free
   936   0016D2                     
   937                           ;mcc_generated_files/eusart.c: 87:     EUSART_SetOverrunErrorHandler(EUSART_DefaultOverr
      +                          unErrorHandler);
   938   0016D2  0E00               	movlw	0
   939   0016D4  6E2C               	movwf	EUSART_SetOverrunErrorHandler@interruptHandler^0,c
   940   0016D6  0E00               	movlw	0
   941   0016D8  6E2D               	movwf	(EUSART_SetOverrunErrorHandler@interruptHandler+1)^0,c
   942   0016DA  ECD9  F00C         	call	_EUSART_SetOverrunErrorHandler	;wreg free
   943   0016DE                     
   944                           ;mcc_generated_files/eusart.c: 88:     EUSART_SetErrorHandler(EUSART_DefaultErrorHandler
      +                          );
   945   0016DE  0E00               	movlw	0
   946   0016E0  6E2C               	movwf	EUSART_SetErrorHandler@interruptHandler^0,c
   947   0016E2  0E00               	movlw	0
   948   0016E4  6E2D               	movwf	(EUSART_SetErrorHandler@interruptHandler+1)^0,c
   949   0016E6  ECE3  F00C         	call	_EUSART_SetErrorHandler	;wreg free
   950   0016EA                     
   951                           ;mcc_generated_files/eusart.c: 90:     eusartRxLastError.status = 0;
   952   0016EA  0E00               	movlw	0
   953   0016EC  6E2B               	movwf	_eusartRxLastError^0,c	;volatile
   954   0016EE  0012               	return		;funcret
   955   0016F0                     __end_of_EUSART_Initialize:
   956                           	callstack 0
   957                           
   958 ;; *************** function _EUSART_SetOverrunErrorHandler *****************
   959 ;; Defined at:
   960 ;;		line 169 in file "mcc_generated_files/eusart.c"
   961 ;; Parameters:    Size  Location     Type
   962 ;;  interruptHan    2    0[COMRAM] PTR FTN()void 
   963 ;;		 -> EUSART_DefaultOverrunErrorHandler(1), 
   964 ;; Auto vars:     Size  Location     Type
   965 ;;		None
   966 ;; Return value:  Size  Location     Type
   967 ;;                  1    wreg      void 
   968 ;; Registers used:
   969 ;;		wreg, status,2, status,0
   970 ;; Tracked objects:
   971 ;;		On entry : 0/0
   972 ;;		On exit  : 0/0
   973 ;;		Unchanged: 0/0
   974 ;; Data sizes:     COMRAM   BANK0   BANK1   BANK2   BANK3   BANK4   BANK5   BANK6   BANK7   BANK8   BANK9  BANK10  BANK1
      +1  BANK12  BANK13  BANK14  BANK15
   975 ;;      Params:         2       0       0       0       0       0       0       0       0       0       0       0       
      +0       0       0       0       0
   976 ;;      Locals:         0       0       0       0       0       0       0       0       0       0       0       0       
      +0       0       0       0       0
   977 ;;      Temps:          0       0       0       0       0       0       0       0       0       0       0       0       
      +0       0       0       0       0
   978 ;;      Totals:         2       0       0       0       0       0       0       0       0       0       0       0       
      +0       0       0       0       0
   979 ;;Total ram usage:        2 bytes
   980 ;; Hardware stack levels used: 1
   981 ;; This function calls:
   982 ;;		Nothing
   983 ;; This function is called by:
   984 ;;		_EUSART_Initialize
   985 ;; This function uses a non-reentrant model
   986 ;;
   987                           
   988                           	psect	text7
   989   0019B2                     __ptext7:
   990                           	callstack 0
   991   0019B2                     _EUSART_SetOverrunErrorHandler:
   992                           	callstack 28
   993   0019B2                     
   994                           ;mcc_generated_files/eusart.c: 170:     EUSART_OverrunErrorHandler = interruptHandler;
   995   0019B2  C02C  F049         	movff	EUSART_SetOverrunErrorHandler@interruptHandler,_EUSART_OverrunErrorHandler
   996   0019B6  C02D  F04A         	movff	EUSART_SetOverrunErrorHandler@interruptHandler+1,_EUSART_OverrunErrorHandler+1
   997   0019BA  0012               	return		;funcret
   998   0019BC                     __end_of_EUSART_SetOverrunErrorHandler:
   999                           	callstack 0
  1000                           
  1001 ;; *************** function _EUSART_SetFramingErrorHandler *****************
  1002 ;; Defined at:
  1003 ;;		line 165 in file "mcc_generated_files/eusart.c"
  1004 ;; Parameters:    Size  Location     Type
  1005 ;;  interruptHan    2    0[COMRAM] PTR FTN()void 
  1006 ;;		 -> EUSART_DefaultFramingErrorHandler(1), 
  1007 ;; Auto vars:     Size  Location     Type
  1008 ;;		None
  1009 ;; Return value:  Size  Location     Type
  1010 ;;                  1    wreg      void 
  1011 ;; Registers used:
  1012 ;;		wreg, status,2, status,0
  1013 ;; Tracked objects:
  1014 ;;		On entry : 0/0
  1015 ;;		On exit  : 0/0
  1016 ;;		Unchanged: 0/0
  1017 ;; Data sizes:     COMRAM   BANK0   BANK1   BANK2   BANK3   BANK4   BANK5   BANK6   BANK7   BANK8   BANK9  BANK10  BANK1
      +1  BANK12  BANK13  BANK14  BANK15
  1018 ;;      Params:         2       0       0       0       0       0       0       0       0       0       0       0       
      +0       0       0       0       0
  1019 ;;      Locals:         0       0       0       0       0       0       0       0       0       0       0       0       
      +0       0       0       0       0
  1020 ;;      Temps:          0       0       0       0       0       0       0       0       0       0       0       0       
      +0       0       0       0       0
  1021 ;;      Totals:         2       0       0       0       0       0       0       0       0       0       0       0       
      +0       0       0       0       0
  1022 ;;Total ram usage:        2 bytes
  1023 ;; Hardware stack levels used: 1
  1024 ;; This function calls:
  1025 ;;		Nothing
  1026 ;; This function is called by:
  1027 ;;		_EUSART_Initialize
  1028 ;; This function uses a non-reentrant model
  1029 ;;
  1030                           
  1031                           	psect	text8
  1032   0019BC                     __ptext8:
  1033                           	callstack 0
  1034   0019BC                     _EUSART_SetFramingErrorHandler:
  1035                           	callstack 28
  1036   0019BC                     
  1037                           ;mcc_generated_files/eusart.c: 166:     EUSART_FramingErrorHandler = interruptHandler;
  1038   0019BC  C02C  F04B         	movff	EUSART_SetFramingErrorHandler@interruptHandler,_EUSART_FramingErrorHandler
  1039   0019C0  C02D  F04C         	movff	EUSART_SetFramingErrorHandler@interruptHandler+1,_EUSART_FramingErrorHandler+1
  1040   0019C4  0012               	return		;funcret
  1041   0019C6                     __end_of_EUSART_SetFramingErrorHandler:
  1042                           	callstack 0
  1043                           
  1044 ;; *************** function _EUSART_SetErrorHandler *****************
  1045 ;; Defined at:
  1046 ;;		line 173 in file "mcc_generated_files/eusart.c"
  1047 ;; Parameters:    Size  Location     Type
  1048 ;;  interruptHan    2    0[COMRAM] PTR FTN()void 
  1049 ;;		 -> EUSART_DefaultErrorHandler(1), 
  1050 ;; Auto vars:     Size  Location     Type
  1051 ;;		None
  1052 ;; Return value:  Size  Location     Type
  1053 ;;                  1    wreg      void 
  1054 ;; Registers used:
  1055 ;;		wreg, status,2, status,0
  1056 ;; Tracked objects:
  1057 ;;		On entry : 0/0
  1058 ;;		On exit  : 0/0
  1059 ;;		Unchanged: 0/0
  1060 ;; Data sizes:     COMRAM   BANK0   BANK1   BANK2   BANK3   BANK4   BANK5   BANK6   BANK7   BANK8   BANK9  BANK10  BANK1
      +1  BANK12  BANK13  BANK14  BANK15
  1061 ;;      Params:         2       0       0       0       0       0       0       0       0       0       0       0       
      +0       0       0       0       0
  1062 ;;      Locals:         0       0       0       0       0       0       0       0       0       0       0       0       
      +0       0       0       0       0
  1063 ;;      Temps:          0       0       0       0       0       0       0       0       0       0       0       0       
      +0       0       0       0       0
  1064 ;;      Totals:         2       0       0       0       0       0       0       0       0       0       0       0       
      +0       0       0       0       0
  1065 ;;Total ram usage:        2 bytes
  1066 ;; Hardware stack levels used: 1
  1067 ;; This function calls:
  1068 ;;		Nothing
  1069 ;; This function is called by:
  1070 ;;		_EUSART_Initialize
  1071 ;; This function uses a non-reentrant model
  1072 ;;
  1073                           
  1074                           	psect	text9
  1075   0019C6                     __ptext9:
  1076                           	callstack 0
  1077   0019C6                     _EUSART_SetErrorHandler:
  1078                           	callstack 28
  1079   0019C6                     
  1080                           ;mcc_generated_files/eusart.c: 174:     EUSART_ErrorHandler = interruptHandler;
  1081   0019C6  C02C  F047         	movff	EUSART_SetErrorHandler@interruptHandler,_EUSART_ErrorHandler
  1082   0019CA  C02D  F048         	movff	EUSART_SetErrorHandler@interruptHandler+1,_EUSART_ErrorHandler+1
  1083   0019CE  0012               	return		;funcret
  1084   0019D0                     __end_of_EUSART_SetErrorHandler:
  1085                           	callstack 0
  1086                           
  1087 ;; *************** function _RTC_DS1307_print *****************
  1088 ;; Defined at:
  1089 ;;		line 12 in file "ECUAL/RTC_DS1307/rtc_ds1307.c"
  1090 ;; Parameters:    Size  Location     Type
  1091 ;;  slave_addres    1    wreg     unsigned char 
  1092 ;; Auto vars:     Size  Location     Type
  1093 ;;  slave_addres    1   21[COMRAM] unsigned char 
  1094 ;; Return value:  Size  Location     Type
  1095 ;;                  1    wreg      void 
  1096 ;; Registers used:
  1097 ;;		wreg, fsr2l, fsr2h, status,2, status,0, pcl, pclath, pclatu, tosl, tblptrl, tblptrh, tblptru, prodl, prodh, cstack
  1098 ;; Tracked objects:
  1099 ;;		On entry : 0/0
  1100 ;;		On exit  : 0/0
  1101 ;;		Unchanged: 0/0
  1102 ;; Data sizes:     COMRAM   BANK0   BANK1   BANK2   BANK3   BANK4   BANK5   BANK6   BANK7   BANK8   BANK9  BANK10  BANK1
      +1  BANK12  BANK13  BANK14  BANK15
  1103 ;;      Params:         0       0       0       0       0       0       0       0       0       0       0       0       
      +0       0       0       0       0
  1104 ;;      Locals:         1       0       0       0       0       0       0       0       0       0       0       0       
      +0       0       0       0       0
  1105 ;;      Temps:          0       0       0       0       0       0       0       0       0       0       0       0       
      +0       0       0       0       0
  1106 ;;      Totals:         1       0       0       0       0       0       0       0       0       0       0       0       
      +0       0       0       0       0
  1107 ;;Total ram usage:        1 bytes
  1108 ;; Hardware stack levels used: 1
  1109 ;; Hardware stack levels required when called: 10
  1110 ;; This function calls:
  1111 ;;		_BCD_UART_Print
  1112 ;;		_EUSART_Write
  1113 ;;		_EUSART_Write_String
  1114 ;;		_RTC_DS1307_receive_values
  1115 ;; This function is called by:
  1116 ;;		_main
  1117 ;; This function uses a non-reentrant model
  1118 ;;
  1119                           
  1120                           	psect	text10
  1121   001396                     __ptext10:
  1122                           	callstack 0
  1123   001396                     _RTC_DS1307_print:
  1124                           	callstack 20
  1125                           
  1126                           ;incstack = 0
  1127                           ;RTC_DS1307_print@slave_address stored from wreg
  1128   001396  6E41               	movwf	RTC_DS1307_print@slave_address^0,c
  1129   001398                     
  1130                           ;ECUAL/RTC_DS1307/rtc_ds1307.c: 13:     RTC_DS1307_receive_values(slave_address);
  1131   001398  5041               	movf	RTC_DS1307_print@slave_address^0,w,c
  1132   00139A  EC50  F009         	call	_RTC_DS1307_receive_values
  1133   00139E                     
  1134                           ;ECUAL/RTC_DS1307/rtc_ds1307.c: 14:     EUSART_Write_String("Date: ");
  1135   00139E  0E28               	movlw	low STR_1
  1136   0013A0  6E2D               	movwf	EUSART_Write_String@str^0,c
  1137   0013A2  0E10               	movlw	high STR_1
  1138   0013A4  6E2E               	movwf	(EUSART_Write_String@str+1)^0,c
  1139   0013A6  EC78  F00B         	call	_EUSART_Write_String	;wreg free
  1140   0013AA                     
  1141                           ;ECUAL/RTC_DS1307/rtc_ds1307.c: 15:     BCD_UART_Print(rtc_received._day) ;
  1142   0013AA  5025               	movf	_rtc_received^0,w,c
  1143   0013AC  EC57  F00C         	call	_BCD_UART_Print
  1144   0013B0                     
  1145                           ;ECUAL/RTC_DS1307/rtc_ds1307.c: 16:     EUSART_Write(':');
  1146   0013B0  0E3A               	movlw	58
  1147   0013B2  EC7B  F00C         	call	_EUSART_Write
  1148   0013B6                     
  1149                           ;ECUAL/RTC_DS1307/rtc_ds1307.c: 17:     BCD_UART_Print(rtc_received._month) ;
  1150   0013B6  5026               	movf	(_rtc_received+1)^0,w,c
  1151   0013B8  EC57  F00C         	call	_BCD_UART_Print
  1152   0013BC                     
  1153                           ;ECUAL/RTC_DS1307/rtc_ds1307.c: 18:     EUSART_Write(':');
  1154   0013BC  0E3A               	movlw	58
  1155   0013BE  EC7B  F00C         	call	_EUSART_Write
  1156   0013C2                     
  1157                           ;ECUAL/RTC_DS1307/rtc_ds1307.c: 19:     BCD_UART_Print(rtc_received._year);
  1158   0013C2  5027               	movf	(_rtc_received+2)^0,w,c
  1159   0013C4  EC57  F00C         	call	_BCD_UART_Print
  1160   0013C8                     
  1161                           ;ECUAL/RTC_DS1307/rtc_ds1307.c: 20:     EUSART_Write_String("\r");
  1162   0013C8  0E2F               	movlw	low STR_2
  1163   0013CA  6E2D               	movwf	EUSART_Write_String@str^0,c
  1164   0013CC  0E10               	movlw	high STR_2
  1165   0013CE  6E2E               	movwf	(EUSART_Write_String@str+1)^0,c
  1166   0013D0  EC78  F00B         	call	_EUSART_Write_String	;wreg free
  1167   0013D4                     
  1168                           ;ECUAL/RTC_DS1307/rtc_ds1307.c: 21:     EUSART_Write_String("Time: ");
  1169   0013D4  0E21               	movlw	low STR_3
  1170   0013D6  6E2D               	movwf	EUSART_Write_String@str^0,c
  1171   0013D8  0E10               	movlw	high STR_3
  1172   0013DA  6E2E               	movwf	(EUSART_Write_String@str+1)^0,c
  1173   0013DC  EC78  F00B         	call	_EUSART_Write_String	;wreg free
  1174   0013E0                     
  1175                           ;ECUAL/RTC_DS1307/rtc_ds1307.c: 22:     BCD_UART_Print(rtc_received._hour);
  1176   0013E0  502A               	movf	(_rtc_received+5)^0,w,c
  1177   0013E2  EC57  F00C         	call	_BCD_UART_Print
  1178   0013E6                     
  1179                           ;ECUAL/RTC_DS1307/rtc_ds1307.c: 23:     EUSART_Write(':');
  1180   0013E6  0E3A               	movlw	58
  1181   0013E8  EC7B  F00C         	call	_EUSART_Write
  1182   0013EC                     
  1183                           ;ECUAL/RTC_DS1307/rtc_ds1307.c: 24:     BCD_UART_Print(rtc_received._min);
  1184   0013EC  5029               	movf	(_rtc_received+4)^0,w,c
  1185   0013EE  EC57  F00C         	call	_BCD_UART_Print
  1186   0013F2                     
  1187                           ;ECUAL/RTC_DS1307/rtc_ds1307.c: 25:     EUSART_Write(':');
  1188   0013F2  0E3A               	movlw	58
  1189   0013F4  EC7B  F00C         	call	_EUSART_Write
  1190   0013F8                     
  1191                           ;ECUAL/RTC_DS1307/rtc_ds1307.c: 26:     BCD_UART_Print(rtc_received._sec);
  1192   0013F8  5028               	movf	(_rtc_received+3)^0,w,c
  1193   0013FA  EC57  F00C         	call	_BCD_UART_Print
  1194   0013FE                     
  1195                           ;ECUAL/RTC_DS1307/rtc_ds1307.c: 27:     EUSART_Write_String("\r");
  1196   0013FE  0E2F               	movlw	low STR_2
  1197   001400  6E2D               	movwf	EUSART_Write_String@str^0,c
  1198   001402  0E10               	movlw	high STR_2
  1199   001404  6E2E               	movwf	(EUSART_Write_String@str+1)^0,c
  1200   001406  EC78  F00B         	call	_EUSART_Write_String	;wreg free
  1201   00140A  0012               	return		;funcret
  1202   00140C                     __end_of_RTC_DS1307_print:
  1203                           	callstack 0
  1204                           
  1205 ;; *************** function _RTC_DS1307_receive_values *****************
  1206 ;; Defined at:
  1207 ;;		line 29 in file "ECUAL/RTC_DS1307/rtc_ds1307.c"
  1208 ;; Parameters:    Size  Location     Type
  1209 ;;  slave_addres    1    wreg     unsigned char 
  1210 ;; Auto vars:     Size  Location     Type
  1211 ;;  slave_addres    1   20[COMRAM] unsigned char 
  1212 ;; Return value:  Size  Location     Type
  1213 ;;                  1    wreg      void 
  1214 ;; Registers used:
  1215 ;;		wreg, fsr2l, fsr2h, status,2, status,0, pcl, pclath, pclatu, tosl, tblptrl, tblptrh, tblptru, prodl, prodh, cstack
  1216 ;; Tracked objects:
  1217 ;;		On entry : 0/0
  1218 ;;		On exit  : 0/0
  1219 ;;		Unchanged: 0/0
  1220 ;; Data sizes:     COMRAM   BANK0   BANK1   BANK2   BANK3   BANK4   BANK5   BANK6   BANK7   BANK8   BANK9  BANK10  BANK1
      +1  BANK12  BANK13  BANK14  BANK15
  1221 ;;      Params:         0       0       0       0       0       0       0       0       0       0       0       0       
      +0       0       0       0       0
  1222 ;;      Locals:         1       0       0       0       0       0       0       0       0       0       0       0       
      +0       0       0       0       0
  1223 ;;      Temps:          0       0       0       0       0       0       0       0       0       0       0       0       
      +0       0       0       0       0
  1224 ;;      Totals:         1       0       0       0       0       0       0       0       0       0       0       0       
      +0       0       0       0       0
  1225 ;;Total ram usage:        1 bytes
  1226 ;; Hardware stack levels used: 1
  1227 ;; Hardware stack levels required when called: 9
  1228 ;; This function calls:
  1229 ;;		_I2C_Read1ByteRegister
  1230 ;; This function is called by:
  1231 ;;		_RTC_DS1307_print
  1232 ;; This function uses a non-reentrant model
  1233 ;;
  1234                           
  1235                           	psect	text11
  1236   0012A0                     __ptext11:
  1237                           	callstack 0
  1238   0012A0                     _RTC_DS1307_receive_values:
  1239                           	callstack 20
  1240                           
  1241                           ;incstack = 0
  1242                           ;RTC_DS1307_receive_values@slave_address stored from wreg
  1243   0012A0  6E40               	movwf	RTC_DS1307_receive_values@slave_address^0,c
  1244   0012A2                     
  1245                           ;ECUAL/RTC_DS1307/rtc_ds1307.c: 30:     rtc_received._sec = I2C_Read1ByteRegister(slave_
      +                          address ,0x00);
  1246   0012A2  0E00               	movlw	0
  1247   0012A4  6E3D               	movwf	I2C_Read1ByteRegister@reg^0,c
  1248   0012A6  5040               	movf	RTC_DS1307_receive_values@slave_address^0,w,c
  1249   0012A8  EC41  F00A         	call	_I2C_Read1ByteRegister
  1250   0012AC  6E28               	movwf	(_rtc_received+3)^0,c
  1251   0012AE                     
  1252                           ;ECUAL/RTC_DS1307/rtc_ds1307.c: 31:     _delay((unsigned long)((100)*(16000000/4000000.0
      +                          )));
  1253   0012AE  0E85               	movlw	133
  1254   0012B0                     u907:
  1255   0012B0  2EE8               	decfsz	wreg,f,c
  1256   0012B2  D7FE               	bra	u907
  1257   0012B4  F000               	nop	
  1258   0012B6                     
  1259                           ;ECUAL/RTC_DS1307/rtc_ds1307.c: 32:     rtc_received._min = I2C_Read1ByteRegister(slave_
      +                          address ,0x01);
  1260   0012B6  0E01               	movlw	1
  1261   0012B8  6E3D               	movwf	I2C_Read1ByteRegister@reg^0,c
  1262   0012BA  5040               	movf	RTC_DS1307_receive_values@slave_address^0,w,c
  1263   0012BC  EC41  F00A         	call	_I2C_Read1ByteRegister
  1264   0012C0  6E29               	movwf	(_rtc_received+4)^0,c
  1265                           
  1266                           ;ECUAL/RTC_DS1307/rtc_ds1307.c: 33:     _delay((unsigned long)((100)*(16000000/4000000.0
      +                          )));
  1267   0012C2  0E85               	movlw	133
  1268   0012C4                     u917:
  1269   0012C4  2EE8               	decfsz	wreg,f,c
  1270   0012C6  D7FE               	bra	u917
  1271   0012C8  F000               	nop	
  1272   0012CA                     
  1273                           ;ECUAL/RTC_DS1307/rtc_ds1307.c: 34:     rtc_received._hour = I2C_Read1ByteRegister(slave
      +                          _address ,0x02);
  1274   0012CA  0E02               	movlw	2
  1275   0012CC  6E3D               	movwf	I2C_Read1ByteRegister@reg^0,c
  1276   0012CE  5040               	movf	RTC_DS1307_receive_values@slave_address^0,w,c
  1277   0012D0  EC41  F00A         	call	_I2C_Read1ByteRegister
  1278   0012D4  6E2A               	movwf	(_rtc_received+5)^0,c
  1279   0012D6                     
  1280                           ;ECUAL/RTC_DS1307/rtc_ds1307.c: 35:     _delay((unsigned long)((100)*(16000000/4000000.0
      +                          )));
  1281   0012D6  0E85               	movlw	133
  1282   0012D8                     u927:
  1283   0012D8  2EE8               	decfsz	wreg,f,c
  1284   0012DA  D7FE               	bra	u927
  1285   0012DC  F000               	nop	
  1286                           
  1287                           ;ECUAL/RTC_DS1307/rtc_ds1307.c: 36:     rtc_received._day = I2C_Read1ByteRegister(slave_
      +                          address ,0x04);
  1288   0012DE  0E04               	movlw	4
  1289   0012E0  6E3D               	movwf	I2C_Read1ByteRegister@reg^0,c
  1290   0012E2  5040               	movf	RTC_DS1307_receive_values@slave_address^0,w,c
  1291   0012E4  EC41  F00A         	call	_I2C_Read1ByteRegister
  1292   0012E8  6E25               	movwf	_rtc_received^0,c
  1293   0012EA                     
  1294                           ;ECUAL/RTC_DS1307/rtc_ds1307.c: 37:     _delay((unsigned long)((100)*(16000000/4000000.0
      +                          )));
  1295   0012EA  0E85               	movlw	133
  1296   0012EC                     u937:
  1297   0012EC  2EE8               	decfsz	wreg,f,c
  1298   0012EE  D7FE               	bra	u937
  1299   0012F0  F000               	nop	
  1300   0012F2                     
  1301                           ;ECUAL/RTC_DS1307/rtc_ds1307.c: 38:     rtc_received._month = I2C_Read1ByteRegister(slav
      +                          e_address ,0x05);
  1302   0012F2  0E05               	movlw	5
  1303   0012F4  6E3D               	movwf	I2C_Read1ByteRegister@reg^0,c
  1304   0012F6  5040               	movf	RTC_DS1307_receive_values@slave_address^0,w,c
  1305   0012F8  EC41  F00A         	call	_I2C_Read1ByteRegister
  1306   0012FC  6E26               	movwf	(_rtc_received+1)^0,c
  1307                           
  1308                           ;ECUAL/RTC_DS1307/rtc_ds1307.c: 39:     _delay((unsigned long)((100)*(16000000/4000000.0
      +                          )));
  1309   0012FE  0E85               	movlw	133
  1310   001300                     u947:
  1311   001300  2EE8               	decfsz	wreg,f,c
  1312   001302  D7FE               	bra	u947
  1313   001304  F000               	nop	
  1314   001306                     
  1315                           ;ECUAL/RTC_DS1307/rtc_ds1307.c: 40:     rtc_received._year = I2C_Read1ByteRegister(slave
      +                          _address ,0x06);
  1316   001306  0E06               	movlw	6
  1317   001308  6E3D               	movwf	I2C_Read1ByteRegister@reg^0,c
  1318   00130A  5040               	movf	RTC_DS1307_receive_values@slave_address^0,w,c
  1319   00130C  EC41  F00A         	call	_I2C_Read1ByteRegister
  1320   001310  6E27               	movwf	(_rtc_received+2)^0,c
  1321   001312                     
  1322                           ;ECUAL/RTC_DS1307/rtc_ds1307.c: 41:     _delay((unsigned long)((100)*(16000000/4000000.0
      +                          )));
  1323   001312  0E85               	movlw	133
  1324   001314                     u957:
  1325   001314  2EE8               	decfsz	wreg,f,c
  1326   001316  D7FE               	bra	u957
  1327   001318  F000               	nop	
  1328   00131A  0012               	return		;funcret
  1329   00131C                     __end_of_RTC_DS1307_receive_values:
  1330                           	callstack 0
  1331                           
  1332 ;; *************** function _EUSART_Write_String *****************
  1333 ;; Defined at:
  1334 ;;		line 140 in file "mcc_generated_files/eusart.c"
  1335 ;; Parameters:    Size  Location     Type
  1336 ;;  str             2    1[COMRAM] PTR unsigned char 
  1337 ;;		 -> STR_4(2), STR_3(7), STR_2(2), STR_1(7), 
  1338 ;; Auto vars:     Size  Location     Type
  1339 ;;		None
  1340 ;; Return value:  Size  Location     Type
  1341 ;;                  1    wreg      void 
  1342 ;; Registers used:
  1343 ;;		wreg, status,2, status,0, tblptrl, tblptrh, tblptru, cstack
  1344 ;; Tracked objects:
  1345 ;;		On entry : 0/0
  1346 ;;		On exit  : 0/0
  1347 ;;		Unchanged: 0/0
  1348 ;; Data sizes:     COMRAM   BANK0   BANK1   BANK2   BANK3   BANK4   BANK5   BANK6   BANK7   BANK8   BANK9  BANK10  BANK1
      +1  BANK12  BANK13  BANK14  BANK15
  1349 ;;      Params:         2       0       0       0       0       0       0       0       0       0       0       0       
      +0       0       0       0       0
  1350 ;;      Locals:         0       0       0       0       0       0       0       0       0       0       0       0       
      +0       0       0       0       0
  1351 ;;      Temps:          0       0       0       0       0       0       0       0       0       0       0       0       
      +0       0       0       0       0
  1352 ;;      Totals:         2       0       0       0       0       0       0       0       0       0       0       0       
      +0       0       0       0       0
  1353 ;;Total ram usage:        2 bytes
  1354 ;; Hardware stack levels used: 1
  1355 ;; Hardware stack levels required when called: 1
  1356 ;; This function calls:
  1357 ;;		_EUSART_Write
  1358 ;; This function is called by:
  1359 ;;		_RTC_DS1307_print
  1360 ;; This function uses a non-reentrant model
  1361 ;;
  1362                           
  1363                           	psect	text12
  1364   0016F0                     __ptext12:
  1365                           	callstack 0
  1366   0016F0                     _EUSART_Write_String:
  1367                           	callstack 28
  1368   0016F0                     
  1369                           ;mcc_generated_files/eusart.c: 141:     while (*str){
  1370   0016F0  EF85  F00B         	goto	l2550
  1371   0016F4                     l2546:
  1372                           
  1373                           ;mcc_generated_files/eusart.c: 142:         EUSART_Write(*str);
  1374   0016F4  C02D  FFF6         	movff	EUSART_Write_String@str,tblptrl
  1375   0016F8  C02E  FFF7         	movff	EUSART_Write_String@str+1,tblptrh
  1376   0016FC                     	if	1	;Program memory is < 0x10000, tblptru is always zero
  1377   0016FC  6AF8               	clrf	tblptru,c
  1378   0016FE                     	endif
  1379   0016FE                     	if	0	;tblptru may be non-zero
  1380   0016FE                     	endif
  1381   0016FE  0008               	tblrd		*
  1382   001700  50F5               	movf	tablat,w,c
  1383   001702  EC7B  F00C         	call	_EUSART_Write
  1384   001706                     
  1385                           ;mcc_generated_files/eusart.c: 143:         str++;
  1386   001706  4A2D               	infsnz	EUSART_Write_String@str^0,f,c
  1387   001708  2A2E               	incf	(EUSART_Write_String@str+1)^0,f,c
  1388   00170A                     l2550:
  1389                           
  1390                           ;mcc_generated_files/eusart.c: 141:     while (*str){
  1391   00170A  C02D  FFF6         	movff	EUSART_Write_String@str,tblptrl
  1392   00170E  C02E  FFF7         	movff	EUSART_Write_String@str+1,tblptrh
  1393   001712                     	if	1	;Program memory is < 0x10000, tblptru is always zero
  1394   001712  6AF8               	clrf	tblptru,c
  1395   001714                     	endif
  1396   001714                     	if	0	;tblptru may be non-zero
  1397   001714                     	endif
  1398   001714  0008               	tblrd		*
  1399   001716  50F5               	movf	tablat,w,c
  1400   001718  0900               	iorlw	0
  1401   00171A  A4D8               	btfss	status,2,c
  1402   00171C  EF92  F00B         	goto	u741
  1403   001720  EF94  F00B         	goto	u740
  1404   001724                     u741:
  1405   001724  EF7A  F00B         	goto	l2546
  1406   001728                     u740:
  1407   001728  0012               	return		;funcret
  1408   00172A                     __end_of_EUSART_Write_String:
  1409                           	callstack 0
  1410                           
  1411 ;; *************** function _BCD_UART_Print *****************
  1412 ;; Defined at:
  1413 ;;		line 43 in file "ECUAL/RTC_DS1307/rtc_ds1307.c"
  1414 ;; Parameters:    Size  Location     Type
  1415 ;;  data            1    wreg     unsigned char 
  1416 ;; Auto vars:     Size  Location     Type
  1417 ;;  data            1    1[COMRAM] unsigned char 
  1418 ;; Return value:  Size  Location     Type
  1419 ;;                  1    wreg      void 
  1420 ;; Registers used:
  1421 ;;		wreg, status,2, status,0, cstack
  1422 ;; Tracked objects:
  1423 ;;		On entry : 0/0
  1424 ;;		On exit  : 0/0
  1425 ;;		Unchanged: 0/0
  1426 ;; Data sizes:     COMRAM   BANK0   BANK1   BANK2   BANK3   BANK4   BANK5   BANK6   BANK7   BANK8   BANK9  BANK10  BANK1
      +1  BANK12  BANK13  BANK14  BANK15
  1427 ;;      Params:         0       0       0       0       0       0       0       0       0       0       0       0       
      +0       0       0       0       0
  1428 ;;      Locals:         1       0       0       0       0       0       0       0       0       0       0       0       
      +0       0       0       0       0
  1429 ;;      Temps:          0       0       0       0       0       0       0       0       0       0       0       0       
      +0       0       0       0       0
  1430 ;;      Totals:         1       0       0       0       0       0       0       0       0       0       0       0       
      +0       0       0       0       0
  1431 ;;Total ram usage:        1 bytes
  1432 ;; Hardware stack levels used: 1
  1433 ;; Hardware stack levels required when called: 1
  1434 ;; This function calls:
  1435 ;;		_EUSART_Write
  1436 ;; This function is called by:
  1437 ;;		_RTC_DS1307_print
  1438 ;; This function uses a non-reentrant model
  1439 ;;
  1440                           
  1441                           	psect	text13
  1442   0018AE                     __ptext13:
  1443                           	callstack 0
  1444   0018AE                     _BCD_UART_Print:
  1445                           	callstack 28
  1446                           
  1447                           ;incstack = 0
  1448                           ;BCD_UART_Print@data stored from wreg
  1449   0018AE  6E2D               	movwf	BCD_UART_Print@data^0,c
  1450   0018B0                     
  1451                           ;ECUAL/RTC_DS1307/rtc_ds1307.c: 44:     EUSART_Write((data>>4)+'0');
  1452   0018B0  382D               	swapf	BCD_UART_Print@data^0,w,c
  1453   0018B2  0B0F               	andlw	15
  1454   0018B4  0F30               	addlw	48
  1455   0018B6  EC7B  F00C         	call	_EUSART_Write
  1456                           
  1457                           ;ECUAL/RTC_DS1307/rtc_ds1307.c: 45:     EUSART_Write((data&0x0F)+ '0');
  1458   0018BA  502D               	movf	BCD_UART_Print@data^0,w,c
  1459   0018BC  0B0F               	andlw	15
  1460   0018BE  0F30               	addlw	48
  1461   0018C0  EC7B  F00C         	call	_EUSART_Write
  1462   0018C4  0012               	return		;funcret
  1463   0018C6                     __end_of_BCD_UART_Print:
  1464                           	callstack 0
  1465                           
  1466 ;; *************** function _EUSART_Write *****************
  1467 ;; Defined at:
  1468 ;;		line 132 in file "mcc_generated_files/eusart.c"
  1469 ;; Parameters:    Size  Location     Type
  1470 ;;  txData          1    wreg     unsigned char 
  1471 ;; Auto vars:     Size  Location     Type
  1472 ;;  txData          1    0[COMRAM] unsigned char 
  1473 ;; Return value:  Size  Location     Type
  1474 ;;                  1    wreg      void 
  1475 ;; Registers used:
  1476 ;;		wreg
  1477 ;; Tracked objects:
  1478 ;;		On entry : 0/0
  1479 ;;		On exit  : 0/0
  1480 ;;		Unchanged: 0/0
  1481 ;; Data sizes:     COMRAM   BANK0   BANK1   BANK2   BANK3   BANK4   BANK5   BANK6   BANK7   BANK8   BANK9  BANK10  BANK1
      +1  BANK12  BANK13  BANK14  BANK15
  1482 ;;      Params:         0       0       0       0       0       0       0       0       0       0       0       0       
      +0       0       0       0       0
  1483 ;;      Locals:         1       0       0       0       0       0       0       0       0       0       0       0       
      +0       0       0       0       0
  1484 ;;      Temps:          0       0       0       0       0       0       0       0       0       0       0       0       
      +0       0       0       0       0
  1485 ;;      Totals:         1       0       0       0       0       0       0       0       0       0       0       0       
      +0       0       0       0       0
  1486 ;;Total ram usage:        1 bytes
  1487 ;; Hardware stack levels used: 1
  1488 ;; This function calls:
  1489 ;;		Nothing
  1490 ;; This function is called by:
  1491 ;;		_EUSART_Write_String
  1492 ;;		_RTC_DS1307_print
  1493 ;;		_BCD_UART_Print
  1494 ;; This function uses a non-reentrant model
  1495 ;;
  1496                           
  1497                           	psect	text14
  1498   0018F6                     __ptext14:
  1499                           	callstack 0
  1500   0018F6                     _EUSART_Write:
  1501                           	callstack 28
  1502                           
  1503                           ;incstack = 0
  1504                           ;EUSART_Write@txData stored from wreg
  1505   0018F6  6E2C               	movwf	EUSART_Write@txData^0,c
  1506   0018F8                     l625:
  1507                           
  1508                           ;mcc_generated_files/eusart.c: 134:     while(0 == PIR1bits.TX1IF)
  1509   0018F8  A89E               	btfss	158,4,c	;volatile
  1510   0018FA  EF81  F00C         	goto	u231
  1511   0018FE  EF83  F00C         	goto	u230
  1512   001902                     u231:
  1513   001902  EF7C  F00C         	goto	l625
  1514   001906                     u230:
  1515   001906                     
  1516                           ;mcc_generated_files/eusart.c: 138:     TXREG = txData;
  1517   001906  C02C  FFAD         	movff	EUSART_Write@txData,4013	;volatile
  1518   00190A  0012               	return		;funcret
  1519   00190C                     __end_of_EUSART_Write:
  1520                           	callstack 0
  1521                           
  1522 ;; *************** function _EXT_EEPROM_24C02C_write *****************
  1523 ;; Defined at:
  1524 ;;		line 10 in file "ECUAL/EXT_EEPROM_24C02C/ext_eeprom_24c02c.c"
  1525 ;; Parameters:    Size  Location     Type
  1526 ;;  slave_addres    1    wreg     unsigned char 
  1527 ;;  location_add    1   20[COMRAM] unsigned char 
  1528 ;;  data            1   21[COMRAM] unsigned char 
  1529 ;; Auto vars:     Size  Location     Type
  1530 ;;  slave_addres    1   22[COMRAM] unsigned char 
  1531 ;; Return value:  Size  Location     Type
  1532 ;;                  1    wreg      void 
  1533 ;; Registers used:
  1534 ;;		wreg, fsr2l, fsr2h, status,2, status,0, pcl, pclath, pclatu, tosl, tblptrl, tblptrh, tblptru, prodl, prodh, cstack
  1535 ;; Tracked objects:
  1536 ;;		On entry : 0/0
  1537 ;;		On exit  : 0/0
  1538 ;;		Unchanged: 0/0
  1539 ;; Data sizes:     COMRAM   BANK0   BANK1   BANK2   BANK3   BANK4   BANK5   BANK6   BANK7   BANK8   BANK9  BANK10  BANK1
      +1  BANK12  BANK13  BANK14  BANK15
  1540 ;;      Params:         2       0       0       0       0       0       0       0       0       0       0       0       
      +0       0       0       0       0
  1541 ;;      Locals:         1       0       0       0       0       0       0       0       0       0       0       0       
      +0       0       0       0       0
  1542 ;;      Temps:          0       0       0       0       0       0       0       0       0       0       0       0       
      +0       0       0       0       0
  1543 ;;      Totals:         3       0       0       0       0       0       0       0       0       0       0       0       
      +0       0       0       0       0
  1544 ;;Total ram usage:        3 bytes
  1545 ;; Hardware stack levels used: 1
  1546 ;; Hardware stack levels required when called: 9
  1547 ;; This function calls:
  1548 ;;		_I2C_Write1ByteRegister
  1549 ;; This function is called by:
  1550 ;;		_main
  1551 ;; This function uses a non-reentrant model
  1552 ;;
  1553                           
  1554                           	psect	text15
  1555   001958                     __ptext15:
  1556                           	callstack 0
  1557   001958                     _EXT_EEPROM_24C02C_write:
  1558                           	callstack 21
  1559                           
  1560                           ;incstack = 0
  1561                           ;EXT_EEPROM_24C02C_write@slave_address stored from wreg
  1562   001958  6E42               	movwf	EXT_EEPROM_24C02C_write@slave_address^0,c
  1563   00195A                     
  1564                           ;ECUAL/EXT_EEPROM_24C02C/ext_eeprom_24c02c.c: 11:     I2C_Write1ByteRegister (slave_addr
      +                          ess,location_address,data);
  1565   00195A  C040  F03D         	movff	EXT_EEPROM_24C02C_write@location_address,I2C_Write1ByteRegister@reg
  1566   00195E  C041  F03E         	movff	EXT_EEPROM_24C02C_write@data,I2C_Write1ByteRegister@data
  1567   001962  5042               	movf	EXT_EEPROM_24C02C_write@slave_address^0,w,c
  1568   001964  EC7B  F00A         	call	_I2C_Write1ByteRegister
  1569   001968  0012               	return		;funcret
  1570   00196A                     __end_of_EXT_EEPROM_24C02C_write:
  1571                           	callstack 0
  1572                           
  1573 ;; *************** function _I2C_Write1ByteRegister *****************
  1574 ;; Defined at:
  1575 ;;		line 91 in file "mcc_generated_files/examples/i2c_master_example.c"
  1576 ;; Parameters:    Size  Location     Type
  1577 ;;  address         1    wreg     unsigned char 
  1578 ;;  reg             1   17[COMRAM] unsigned char 
  1579 ;;  data            1   18[COMRAM] unsigned char 
  1580 ;; Auto vars:     Size  Location     Type
  1581 ;;  address         1   19[COMRAM] unsigned char 
  1582 ;; Return value:  Size  Location     Type
  1583 ;;                  1    wreg      void 
  1584 ;; Registers used:
  1585 ;;		wreg, fsr2l, fsr2h, status,2, status,0, pcl, pclath, pclatu, tosl, tblptrl, tblptrh, tblptru, prodl, prodh, cstack
  1586 ;; Tracked objects:
  1587 ;;		On entry : 0/0
  1588 ;;		On exit  : 0/0
  1589 ;;		Unchanged: 0/0
  1590 ;; Data sizes:     COMRAM   BANK0   BANK1   BANK2   BANK3   BANK4   BANK5   BANK6   BANK7   BANK8   BANK9  BANK10  BANK1
      +1  BANK12  BANK13  BANK14  BANK15
  1591 ;;      Params:         2       0       0       0       0       0       0       0       0       0       0       0       
      +0       0       0       0       0
  1592 ;;      Locals:         1       0       0       0       0       0       0       0       0       0       0       0       
      +0       0       0       0       0
  1593 ;;      Temps:          0       0       0       0       0       0       0       0       0       0       0       0       
      +0       0       0       0       0
  1594 ;;      Totals:         3       0       0       0       0       0       0       0       0       0       0       0       
      +0       0       0       0       0
  1595 ;;Total ram usage:        3 bytes
  1596 ;; Hardware stack levels used: 1
  1597 ;; Hardware stack levels required when called: 8
  1598 ;; This function calls:
  1599 ;;		_I2C_Close
  1600 ;;		_I2C_MasterWrite
  1601 ;;		_I2C_Open
  1602 ;;		_I2C_SetAddressNackCallback
  1603 ;;		_I2C_SetBuffer
  1604 ;;		_I2C_SetDataCompleteCallback
  1605 ;; This function is called by:
  1606 ;;		_main
  1607 ;;		_EXT_EEPROM_24C02C_write
  1608 ;; This function uses a non-reentrant model
  1609 ;;
  1610                           
  1611                           	psect	text16
  1612   0014F6                     __ptext16:
  1613                           	callstack 0
  1614   0014F6                     _I2C_Write1ByteRegister:
  1615                           	callstack 22
  1616                           
  1617                           ;incstack = 0
  1618                           ;I2C_Write1ByteRegister@address stored from wreg
  1619   0014F6  6E3F               	movwf	I2C_Write1ByteRegister@address^0,c
  1620   0014F8                     l2522:
  1621   0014F8  503F               	movf	I2C_Write1ByteRegister@address^0,w,c
  1622   0014FA  ECCA  F008         	call	_I2C_Open
  1623   0014FE  0900               	iorlw	0
  1624   001500  B4D8               	btfsc	status,2,c
  1625   001502  EF85  F00A         	goto	u721
  1626   001506  EF87  F00A         	goto	u720
  1627   00150A                     u721:
  1628   00150A  EF7C  F00A         	goto	l2522
  1629   00150E                     u720:
  1630   00150E                     
  1631                           ;mcc_generated_files/examples/i2c_master_example.c: 94:     I2C_SetDataCompleteCallback(
      +                          wr1RegCompleteHandler,&data);
  1632   00150E  0E5A               	movlw	low _wr1RegCompleteHandler
  1633   001510  6E31               	movwf	I2C_SetDataCompleteCallback@cb^0,c
  1634   001512  0E17               	movlw	high _wr1RegCompleteHandler
  1635   001514  6E32               	movwf	(I2C_SetDataCompleteCallback@cb+1)^0,c
  1636   001516  0E3E               	movlw	low I2C_Write1ByteRegister@data
  1637   001518  6E33               	movwf	I2C_SetDataCompleteCallback@ptr^0,c
  1638   00151A  0E00               	movlw	high I2C_Write1ByteRegister@data
  1639   00151C  6E34               	movwf	(I2C_SetDataCompleteCallback@ptr+1)^0,c
  1640   00151E  EC6F  F00C         	call	_I2C_SetDataCompleteCallback	;wreg free
  1641   001522                     
  1642                           ;mcc_generated_files/examples/i2c_master_example.c: 95:     I2C_SetBuffer(&reg,1);
  1643   001522  0E3D               	movlw	low I2C_Write1ByteRegister@reg
  1644   001524  6E2C               	movwf	I2C_SetBuffer@buffer^0,c
  1645   001526  0E00               	movlw	high I2C_Write1ByteRegister@reg
  1646   001528  6E2D               	movwf	(I2C_SetBuffer@buffer+1)^0,c
  1647   00152A  0E00               	movlw	0
  1648   00152C  6E2F               	movwf	(I2C_SetBuffer@bufferSize+1)^0,c
  1649   00152E  0E01               	movlw	1
  1650   001530  6E2E               	movwf	I2C_SetBuffer@bufferSize^0,c
  1651   001532  EC2B  F00C         	call	_I2C_SetBuffer	;wreg free
  1652   001536                     
  1653                           ;mcc_generated_files/examples/i2c_master_example.c: 96:     I2C_SetAddressNackCallback((
      +                          (void*)0),((void*)0));
  1654   001536  0E00               	movlw	0
  1655   001538  6E31               	movwf	I2C_SetAddressNackCallback@cb^0,c
  1656   00153A  0E00               	movlw	0
  1657   00153C  6E32               	movwf	(I2C_SetAddressNackCallback@cb+1)^0,c
  1658   00153E  0E00               	movlw	0
  1659   001540  6E33               	movwf	I2C_SetAddressNackCallback@ptr^0,c
  1660   001542  0E00               	movlw	0
  1661   001544  6E34               	movwf	(I2C_SetAddressNackCallback@ptr+1)^0,c
  1662   001546  EC63  F00C         	call	_I2C_SetAddressNackCallback	;wreg free
  1663   00154A                     
  1664                           ;mcc_generated_files/examples/i2c_master_example.c: 97:     I2C_MasterWrite();
  1665   00154A  ECF7  F00C         	call	_I2C_MasterWrite	;wreg free
  1666   00154E                     l2532:
  1667   00154E  EC05  F00C         	call	_I2C_Close	;wreg free
  1668   001552  06E8               	decf	wreg,f,c
  1669   001554  B4D8               	btfsc	status,2,c
  1670   001556  EFAF  F00A         	goto	u731
  1671   00155A  EFB1  F00A         	goto	u730
  1672   00155E                     u731:
  1673   00155E  EFA7  F00A         	goto	l2532
  1674   001562                     u730:
  1675   001562  0012               	return		;funcret
  1676   001564                     __end_of_I2C_Write1ByteRegister:
  1677                           	callstack 0
  1678                           
  1679 ;; *************** function _EXT_EEPROM_24C02C_read *****************
  1680 ;; Defined at:
  1681 ;;		line 13 in file "ECUAL/EXT_EEPROM_24C02C/ext_eeprom_24c02c.c"
  1682 ;; Parameters:    Size  Location     Type
  1683 ;;  slave_addres    1    wreg     unsigned char 
  1684 ;;  location_add    1   20[COMRAM] unsigned char 
  1685 ;; Auto vars:     Size  Location     Type
  1686 ;;  slave_addres    1   21[COMRAM] unsigned char 
  1687 ;;  data            1   22[COMRAM] unsigned char 
  1688 ;; Return value:  Size  Location     Type
  1689 ;;                  1    wreg      unsigned char 
  1690 ;; Registers used:
  1691 ;;		wreg, fsr2l, fsr2h, status,2, status,0, pcl, pclath, pclatu, tosl, tblptrl, tblptrh, tblptru, prodl, prodh, cstack
  1692 ;; Tracked objects:
  1693 ;;		On entry : 0/0
  1694 ;;		On exit  : 0/0
  1695 ;;		Unchanged: 0/0
  1696 ;; Data sizes:     COMRAM   BANK0   BANK1   BANK2   BANK3   BANK4   BANK5   BANK6   BANK7   BANK8   BANK9  BANK10  BANK1
      +1  BANK12  BANK13  BANK14  BANK15
  1697 ;;      Params:         1       0       0       0       0       0       0       0       0       0       0       0       
      +0       0       0       0       0
  1698 ;;      Locals:         2       0       0       0       0       0       0       0       0       0       0       0       
      +0       0       0       0       0
  1699 ;;      Temps:          0       0       0       0       0       0       0       0       0       0       0       0       
      +0       0       0       0       0
  1700 ;;      Totals:         3       0       0       0       0       0       0       0       0       0       0       0       
      +0       0       0       0       0
  1701 ;;Total ram usage:        3 bytes
  1702 ;; Hardware stack levels used: 1
  1703 ;; Hardware stack levels required when called: 9
  1704 ;; This function calls:
  1705 ;;		_I2C_Read1ByteRegister
  1706 ;; This function is called by:
  1707 ;;		_main
  1708 ;; This function uses a non-reentrant model
  1709 ;;
  1710                           
  1711                           	psect	text17
  1712   00196A                     __ptext17:
  1713                           	callstack 0
  1714   00196A                     _EXT_EEPROM_24C02C_read:
  1715                           	callstack 21
  1716                           
  1717                           ;incstack = 0
  1718                           ;EXT_EEPROM_24C02C_read@slave_address stored from wreg
  1719   00196A  6E41               	movwf	EXT_EEPROM_24C02C_read@slave_address^0,c
  1720   00196C                     
  1721                           ;ECUAL/EXT_EEPROM_24C02C/ext_eeprom_24c02c.c: 15:     data = I2C_Read1ByteRegister(slave
      +                          _address,location_address);
  1722   00196C  C040  F03D         	movff	EXT_EEPROM_24C02C_read@location_address,I2C_Read1ByteRegister@reg
  1723   001970  5041               	movf	EXT_EEPROM_24C02C_read@slave_address^0,w,c
  1724   001972  EC41  F00A         	call	_I2C_Read1ByteRegister
  1725   001976  6E42               	movwf	EXT_EEPROM_24C02C_read@data^0,c
  1726   001978                     
  1727                           ;ECUAL/EXT_EEPROM_24C02C/ext_eeprom_24c02c.c: 17:     return data;
  1728   001978  5042               	movf	EXT_EEPROM_24C02C_read@data^0,w,c
  1729   00197A  0012               	return		;funcret
  1730   00197C                     __end_of_EXT_EEPROM_24C02C_read:
  1731                           	callstack 0
  1732                           
  1733 ;; *************** function _I2C_Read1ByteRegister *****************
  1734 ;; Defined at:
  1735 ;;		line 63 in file "mcc_generated_files/examples/i2c_master_example.c"
  1736 ;; Parameters:    Size  Location     Type
  1737 ;;  address         1    wreg     unsigned char 
  1738 ;;  reg             1   17[COMRAM] unsigned char 
  1739 ;; Auto vars:     Size  Location     Type
  1740 ;;  address         1   18[COMRAM] unsigned char 
  1741 ;;  returnValue     1   19[COMRAM] unsigned char 
  1742 ;; Return value:  Size  Location     Type
  1743 ;;                  1    wreg      unsigned char 
  1744 ;; Registers used:
  1745 ;;		wreg, fsr2l, fsr2h, status,2, status,0, pcl, pclath, pclatu, tosl, tblptrl, tblptrh, tblptru, prodl, prodh, cstack
  1746 ;; Tracked objects:
  1747 ;;		On entry : 0/0
  1748 ;;		On exit  : 0/0
  1749 ;;		Unchanged: 0/0
  1750 ;; Data sizes:     COMRAM   BANK0   BANK1   BANK2   BANK3   BANK4   BANK5   BANK6   BANK7   BANK8   BANK9  BANK10  BANK1
      +1  BANK12  BANK13  BANK14  BANK15
  1751 ;;      Params:         1       0       0       0       0       0       0       0       0       0       0       0       
      +0       0       0       0       0
  1752 ;;      Locals:         2       0       0       0       0       0       0       0       0       0       0       0       
      +0       0       0       0       0
  1753 ;;      Temps:          0       0       0       0       0       0       0       0       0       0       0       0       
      +0       0       0       0       0
  1754 ;;      Totals:         3       0       0       0       0       0       0       0       0       0       0       0       
      +0       0       0       0       0
  1755 ;;Total ram usage:        3 bytes
  1756 ;; Hardware stack levels used: 1
  1757 ;; Hardware stack levels required when called: 8
  1758 ;; This function calls:
  1759 ;;		_I2C_Close
  1760 ;;		_I2C_MasterWrite
  1761 ;;		_I2C_Open
  1762 ;;		_I2C_SetAddressNackCallback
  1763 ;;		_I2C_SetBuffer
  1764 ;;		_I2C_SetDataCompleteCallback
  1765 ;; This function is called by:
  1766 ;;		_EXT_EEPROM_24C02C_read
  1767 ;;		_RTC_DS1307_receive_values
  1768 ;;		_TEMPSENSOR_TC47_Read
  1769 ;; This function uses a non-reentrant model
  1770 ;;
  1771                           
  1772                           	psect	text18
  1773   001482                     __ptext18:
  1774                           	callstack 0
  1775   001482                     _I2C_Read1ByteRegister:
  1776                           	callstack 21
  1777                           
  1778                           ;incstack = 0
  1779                           ;I2C_Read1ByteRegister@address stored from wreg
  1780   001482  6E3E               	movwf	I2C_Read1ByteRegister@address^0,c
  1781   001484                     
  1782                           ;mcc_generated_files/examples/i2c_master_example.c: 63: uint8_t I2C_Read1ByteRegister(i2
      +                          c_address_t address, uint8_t reg);mcc_generated_files/examples/i2c_master_example.c: 64:
      +                           {;mcc_generated_files/examples/i2c_master_example.c: 65:     uint8_t returnValue = 0x00
      +                          ;
  1783   001484  0E00               	movlw	0
  1784   001486  6E3F               	movwf	I2C_Read1ByteRegister@returnValue^0,c
  1785   001488                     l2498:
  1786   001488  503E               	movf	I2C_Read1ByteRegister@address^0,w,c
  1787   00148A  ECCA  F008         	call	_I2C_Open
  1788   00148E  0900               	iorlw	0
  1789   001490  B4D8               	btfsc	status,2,c
  1790   001492  EF4D  F00A         	goto	u701
  1791   001496  EF4F  F00A         	goto	u700
  1792   00149A                     u701:
  1793   00149A  EF44  F00A         	goto	l2498
  1794   00149E                     u700:
  1795   00149E                     
  1796                           ;mcc_generated_files/examples/i2c_master_example.c: 68:     I2C_SetDataCompleteCallback(
      +                          rd1RegCompleteHandler,&returnValue);
  1797   00149E  0EB2               	movlw	low _rd1RegCompleteHandler
  1798   0014A0  6E31               	movwf	I2C_SetDataCompleteCallback@cb^0,c
  1799   0014A2  0E17               	movlw	high _rd1RegCompleteHandler
  1800   0014A4  6E32               	movwf	(I2C_SetDataCompleteCallback@cb+1)^0,c
  1801   0014A6  0E3F               	movlw	low I2C_Read1ByteRegister@returnValue
  1802   0014A8  6E33               	movwf	I2C_SetDataCompleteCallback@ptr^0,c
  1803   0014AA  0E00               	movlw	high I2C_Read1ByteRegister@returnValue
  1804   0014AC  6E34               	movwf	(I2C_SetDataCompleteCallback@ptr+1)^0,c
  1805   0014AE  EC6F  F00C         	call	_I2C_SetDataCompleteCallback	;wreg free
  1806   0014B2                     
  1807                           ;mcc_generated_files/examples/i2c_master_example.c: 69:     I2C_SetBuffer(&reg,1);
  1808   0014B2  0E3D               	movlw	low I2C_Read1ByteRegister@reg
  1809   0014B4  6E2C               	movwf	I2C_SetBuffer@buffer^0,c
  1810   0014B6  0E00               	movlw	high I2C_Read1ByteRegister@reg
  1811   0014B8  6E2D               	movwf	(I2C_SetBuffer@buffer+1)^0,c
  1812   0014BA  0E00               	movlw	0
  1813   0014BC  6E2F               	movwf	(I2C_SetBuffer@bufferSize+1)^0,c
  1814   0014BE  0E01               	movlw	1
  1815   0014C0  6E2E               	movwf	I2C_SetBuffer@bufferSize^0,c
  1816   0014C2  EC2B  F00C         	call	_I2C_SetBuffer	;wreg free
  1817   0014C6                     
  1818                           ;mcc_generated_files/examples/i2c_master_example.c: 70:     I2C_SetAddressNackCallback((
      +                          (void*)0),((void*)0));
  1819   0014C6  0E00               	movlw	0
  1820   0014C8  6E31               	movwf	I2C_SetAddressNackCallback@cb^0,c
  1821   0014CA  0E00               	movlw	0
  1822   0014CC  6E32               	movwf	(I2C_SetAddressNackCallback@cb+1)^0,c
  1823   0014CE  0E00               	movlw	0
  1824   0014D0  6E33               	movwf	I2C_SetAddressNackCallback@ptr^0,c
  1825   0014D2  0E00               	movlw	0
  1826   0014D4  6E34               	movwf	(I2C_SetAddressNackCallback@ptr+1)^0,c
  1827   0014D6  EC63  F00C         	call	_I2C_SetAddressNackCallback	;wreg free
  1828   0014DA                     
  1829                           ;mcc_generated_files/examples/i2c_master_example.c: 71:     I2C_MasterWrite();
  1830   0014DA  ECF7  F00C         	call	_I2C_MasterWrite	;wreg free
  1831   0014DE                     l2508:
  1832   0014DE  EC05  F00C         	call	_I2C_Close	;wreg free
  1833   0014E2  06E8               	decf	wreg,f,c
  1834   0014E4  B4D8               	btfsc	status,2,c
  1835   0014E6  EF77  F00A         	goto	u711
  1836   0014EA  EF79  F00A         	goto	u710
  1837   0014EE                     u711:
  1838   0014EE  EF6F  F00A         	goto	l2508
  1839   0014F2                     u710:
  1840   0014F2                     
  1841                           ;mcc_generated_files/examples/i2c_master_example.c: 74:     return returnValue;
  1842   0014F2  503F               	movf	I2C_Read1ByteRegister@returnValue^0,w,c
  1843   0014F4  0012               	return		;funcret
  1844   0014F6                     __end_of_I2C_Read1ByteRegister:
  1845                           	callstack 0
  1846                           
  1847 ;; *************** function _I2C_SetAddressNackCallback *****************
  1848 ;; Defined at:
  1849 ;;		line 283 in file "mcc_generated_files/i2c_master.c"
  1850 ;; Parameters:    Size  Location     Type
  1851 ;;  cb              2    5[COMRAM] PTR FTN(PTR void ,)enum 
  1852 ;;		 -> NULL(1), 
  1853 ;;  ptr             2    7[COMRAM] PTR void 
  1854 ;;		 -> NULL(0), 
  1855 ;; Auto vars:     Size  Location     Type
  1856 ;;		None
  1857 ;; Return value:  Size  Location     Type
  1858 ;;                  1    wreg      void 
  1859 ;; Registers used:
  1860 ;;		wreg, fsr2l, fsr2h, status,2, status,0, prodl, prodh, cstack
  1861 ;; Tracked objects:
  1862 ;;		On entry : 0/0
  1863 ;;		On exit  : 0/0
  1864 ;;		Unchanged: 0/0
  1865 ;; Data sizes:     COMRAM   BANK0   BANK1   BANK2   BANK3   BANK4   BANK5   BANK6   BANK7   BANK8   BANK9  BANK10  BANK1
      +1  BANK12  BANK13  BANK14  BANK15
  1866 ;;      Params:         4       0       0       0       0       0       0       0       0       0       0       0       
      +0       0       0       0       0
  1867 ;;      Locals:         0       0       0       0       0       0       0       0       0       0       0       0       
      +0       0       0       0       0
  1868 ;;      Temps:          0       0       0       0       0       0       0       0       0       0       0       0       
      +0       0       0       0       0
  1869 ;;      Totals:         4       0       0       0       0       0       0       0       0       0       0       0       
      +0       0       0       0       0
  1870 ;;Total ram usage:        4 bytes
  1871 ;; Hardware stack levels used: 1
  1872 ;; Hardware stack levels required when called: 1
  1873 ;; This function calls:
  1874 ;;		_I2C_SetCallback
  1875 ;; This function is called by:
  1876 ;;		_I2C_Read1ByteRegister
  1877 ;;		_I2C_Write1ByteRegister
  1878 ;;		_I2C_Read2ByteRegister
  1879 ;;		_I2C_Write2ByteRegister
  1880 ;;		_I2C_WriteNBytes
  1881 ;;		_I2C_ReadDataBlock
  1882 ;; This function uses a non-reentrant model
  1883 ;;
  1884                           
  1885                           	psect	text19
  1886   0018C6                     __ptext19:
  1887                           	callstack 0
  1888   0018C6                     _I2C_SetAddressNackCallback:
  1889                           	callstack 27
  1890   0018C6                     
  1891                           ;mcc_generated_files/i2c_master.c: 283: void I2C_SetAddressNackCallback(i2c_callback_t c
      +                          b, void *ptr);mcc_generated_files/i2c_master.c: 284: {;mcc_generated_files/i2c_master.c:
      +                           285:     I2C_SetCallback(I2C_ADDR_NACK, cb, ptr);
  1892   0018C6  C031  F02C         	movff	I2C_SetAddressNackCallback@cb,I2C_SetCallback@cb
  1893   0018CA  C032  F02D         	movff	I2C_SetAddressNackCallback@cb+1,I2C_SetCallback@cb+1
  1894   0018CE  C033  F02E         	movff	I2C_SetAddressNackCallback@ptr,I2C_SetCallback@ptr
  1895   0018D2  C034  F02F         	movff	I2C_SetAddressNackCallback@ptr+1,I2C_SetCallback@ptr+1
  1896   0018D6  0E02               	movlw	2
  1897   0018D8  EC06  F00A         	call	_I2C_SetCallback
  1898   0018DC  0012               	return		;funcret
  1899   0018DE                     __end_of_I2C_SetAddressNackCallback:
  1900                           	callstack 0
  1901                           
  1902 ;; *************** function _I2C_Open *****************
  1903 ;; Defined at:
  1904 ;;		line 176 in file "mcc_generated_files/i2c_master.c"
  1905 ;; Parameters:    Size  Location     Type
  1906 ;;  address         1    wreg     unsigned char 
  1907 ;; Auto vars:     Size  Location     Type
  1908 ;;  address         1    0[COMRAM] unsigned char 
  1909 ;;  returnValue     1    1[COMRAM] enum E358
  1910 ;; Return value:  Size  Location     Type
  1911 ;;                  1    wreg      enum E358
  1912 ;; Registers used:
  1913 ;;		wreg, status,2, status,0, cstack
  1914 ;; Tracked objects:
  1915 ;;		On entry : 0/0
  1916 ;;		On exit  : 0/0
  1917 ;;		Unchanged: 0/0
  1918 ;; Data sizes:     COMRAM   BANK0   BANK1   BANK2   BANK3   BANK4   BANK5   BANK6   BANK7   BANK8   BANK9  BANK10  BANK1
      +1  BANK12  BANK13  BANK14  BANK15
  1919 ;;      Params:         0       0       0       0       0       0       0       0       0       0       0       0       
      +0       0       0       0       0
  1920 ;;      Locals:         2       0       0       0       0       0       0       0       0       0       0       0       
      +0       0       0       0       0
  1921 ;;      Temps:          0       0       0       0       0       0       0       0       0       0       0       0       
      +0       0       0       0       0
  1922 ;;      Totals:         2       0       0       0       0       0       0       0       0       0       0       0       
      +0       0       0       0       0
  1923 ;;Total ram usage:        2 bytes
  1924 ;; Hardware stack levels used: 1
  1925 ;; Hardware stack levels required when called: 1
  1926 ;; This function calls:
  1927 ;;		_I2C_MasterClearIrq
  1928 ;;		_I2C_MasterOpen
  1929 ;; This function is called by:
  1930 ;;		_I2C_Read1ByteRegister
  1931 ;;		_I2C_Write1ByteRegister
  1932 ;;		_I2C_Read2ByteRegister
  1933 ;;		_I2C_Write2ByteRegister
  1934 ;;		_I2C_WriteNBytes
  1935 ;;		_I2C_ReadNBytes
  1936 ;;		_I2C_ReadDataBlock
  1937 ;; This function uses a non-reentrant model
  1938 ;;
  1939                           
  1940                           	psect	text20
  1941   001194                     __ptext20:
  1942                           	callstack 0
  1943   001194                     _I2C_Open:
  1944                           	callstack 27
  1945                           
  1946                           ;incstack = 0
  1947                           ;I2C_Open@address stored from wreg
  1948   001194  6E2C               	movwf	I2C_Open@address^0,c
  1949   001196                     
  1950                           ;mcc_generated_files/i2c_master.c: 176: i2c_error_t I2C_Open(i2c_address_t address);mcc_
      +                          generated_files/i2c_master.c: 177: {;mcc_generated_files/i2c_master.c: 178:     i2c_erro
      +                          r_t returnValue = I2C_BUSY;
  1951   001196  0E01               	movlw	1
  1952   001198  6E2D               	movwf	I2C_Open@returnValue^0,c
  1953   00119A                     
  1954                           ;mcc_generated_files/i2c_master.c: 180:     if(!I2C_Status.inUse)
  1955   00119A  B424               	btfsc	(_I2C_Status+35)^0,2,c
  1956   00119C  EFD2  F008         	goto	u191
  1957   0011A0  EFD4  F008         	goto	u190
  1958   0011A4                     u191:
  1959   0011A4  EF0E  F009         	goto	l1770
  1960   0011A8                     u190:
  1961   0011A8                     
  1962                           ;mcc_generated_files/i2c_master.c: 181:     {;mcc_generated_files/i2c_master.c: 182:    
      +                               I2C_Status.address = address;
  1963   0011A8  C02C  F01D         	movff	I2C_Open@address,_I2C_Status+28
  1964   0011AC                     
  1965                           ;mcc_generated_files/i2c_master.c: 183:         I2C_Status.busy = 0;
  1966   0011AC  9224               	bcf	(_I2C_Status+35)^0,1,c
  1967   0011AE                     
  1968                           ;mcc_generated_files/i2c_master.c: 184:         I2C_Status.inUse = 1;
  1969   0011AE  8424               	bsf	(_I2C_Status+35)^0,2,c
  1970   0011B0                     
  1971                           ;mcc_generated_files/i2c_master.c: 185:         I2C_Status.addressNackCheck = 0;
  1972   0011B0  9024               	bcf	(_I2C_Status+35)^0,0,c
  1973   0011B2                     
  1974                           ;mcc_generated_files/i2c_master.c: 186:         I2C_Status.state = I2C_RESET;
  1975   0011B2  0E0E               	movlw	14
  1976   0011B4  6E22               	movwf	(_I2C_Status+33)^0,c
  1977   0011B6                     
  1978                           ;mcc_generated_files/i2c_master.c: 187:         I2C_Status.time_out_value = 500;
  1979   0011B6  0E01               	movlw	1
  1980   0011B8  6E1C               	movwf	(_I2C_Status+27)^0,c
  1981   0011BA  0EF4               	movlw	244
  1982   0011BC  6E1B               	movwf	(_I2C_Status+26)^0,c
  1983   0011BE                     
  1984                           ;mcc_generated_files/i2c_master.c: 188:         I2C_Status.bufferFree = 1;
  1985   0011BE  8624               	bsf	(_I2C_Status+35)^0,3,c
  1986   0011C0                     
  1987                           ;mcc_generated_files/i2c_master.c: 191:         I2C_Status.callbackTable[I2C_DATA_COMPLE
      +                          TE]=I2C_CallbackReturnStop;
  1988   0011C0  0E52               	movlw	low _I2C_CallbackReturnStop
  1989   0011C2  6E01               	movwf	_I2C_Status^0,c
  1990   0011C4  0E1A               	movlw	high _I2C_CallbackReturnStop
  1991   0011C6  6E02               	movwf	(_I2C_Status+1)^0,c
  1992   0011C8                     
  1993                           ;mcc_generated_files/i2c_master.c: 192:         I2C_Status.callbackPayload[I2C_DATA_COMP
      +                          LETE] = ((void*)0);
  1994   0011C8  0E00               	movlw	0
  1995   0011CA  6E0D               	movwf	(_I2C_Status+12)^0,c
  1996   0011CC  0E00               	movlw	0
  1997   0011CE  6E0E               	movwf	(_I2C_Status+13)^0,c
  1998   0011D0                     
  1999                           ;mcc_generated_files/i2c_master.c: 193:         I2C_Status.callbackTable[I2C_WRITE_COLLI
      +                          SION]=I2C_CallbackReturnStop;
  2000   0011D0  0E52               	movlw	low _I2C_CallbackReturnStop
  2001   0011D2  6E03               	movwf	(_I2C_Status+2)^0,c
  2002   0011D4  0E1A               	movlw	high _I2C_CallbackReturnStop
  2003   0011D6  6E04               	movwf	(_I2C_Status+3)^0,c
  2004   0011D8                     
  2005                           ;mcc_generated_files/i2c_master.c: 194:         I2C_Status.callbackPayload[I2C_WRITE_COL
      +                          LISION] = ((void*)0);
  2006   0011D8  0E00               	movlw	0
  2007   0011DA  6E0F               	movwf	(_I2C_Status+14)^0,c
  2008   0011DC  0E00               	movlw	0
  2009   0011DE  6E10               	movwf	(_I2C_Status+15)^0,c
  2010   0011E0                     
  2011                           ;mcc_generated_files/i2c_master.c: 195:         I2C_Status.callbackTable[I2C_ADDR_NACK]=
      +                          I2C_CallbackReturnStop;
  2012   0011E0  0E52               	movlw	low _I2C_CallbackReturnStop
  2013   0011E2  6E05               	movwf	(_I2C_Status+4)^0,c
  2014   0011E4  0E1A               	movlw	high _I2C_CallbackReturnStop
  2015   0011E6  6E06               	movwf	(_I2C_Status+5)^0,c
  2016   0011E8                     
  2017                           ;mcc_generated_files/i2c_master.c: 196:         I2C_Status.callbackPayload[I2C_ADDR_NACK
      +                          ] = ((void*)0);
  2018   0011E8  0E00               	movlw	0
  2019   0011EA  6E11               	movwf	(_I2C_Status+16)^0,c
  2020   0011EC  0E00               	movlw	0
  2021   0011EE  6E12               	movwf	(_I2C_Status+17)^0,c
  2022   0011F0                     
  2023                           ;mcc_generated_files/i2c_master.c: 197:         I2C_Status.callbackTable[I2C_DATA_NACK]=
      +                          I2C_CallbackReturnStop;
  2024   0011F0  0E52               	movlw	low _I2C_CallbackReturnStop
  2025   0011F2  6E07               	movwf	(_I2C_Status+6)^0,c
  2026   0011F4  0E1A               	movlw	high _I2C_CallbackReturnStop
  2027   0011F6  6E08               	movwf	(_I2C_Status+7)^0,c
  2028   0011F8                     
  2029                           ;mcc_generated_files/i2c_master.c: 198:         I2C_Status.callbackPayload[I2C_DATA_NACK
      +                          ] = ((void*)0);
  2030   0011F8  0E00               	movlw	0
  2031   0011FA  6E13               	movwf	(_I2C_Status+18)^0,c
  2032   0011FC  0E00               	movlw	0
  2033   0011FE  6E14               	movwf	(_I2C_Status+19)^0,c
  2034   001200                     
  2035                           ;mcc_generated_files/i2c_master.c: 199:         I2C_Status.callbackTable[I2C_TIMEOUT]=I2
      +                          C_CallbackReturnReset;
  2036   001200  0E4E               	movlw	low _I2C_CallbackReturnReset
  2037   001202  6E09               	movwf	(_I2C_Status+8)^0,c
  2038   001204  0E1A               	movlw	high _I2C_CallbackReturnReset
  2039   001206  6E0A               	movwf	(_I2C_Status+9)^0,c
  2040   001208                     
  2041                           ;mcc_generated_files/i2c_master.c: 200:         I2C_Status.callbackPayload[I2C_TIMEOUT] 
      +                          = ((void*)0);
  2042   001208  0E00               	movlw	0
  2043   00120A  6E15               	movwf	(_I2C_Status+20)^0,c
  2044   00120C  0E00               	movlw	0
  2045   00120E  6E16               	movwf	(_I2C_Status+21)^0,c
  2046   001210                     
  2047                           ;mcc_generated_files/i2c_master.c: 202:         I2C_MasterClearIrq();
  2048   001210  EC35  F00D         	call	_I2C_MasterClearIrq	;wreg free
  2049   001214                     
  2050                           ;mcc_generated_files/i2c_master.c: 203:         I2C_MasterOpen();
  2051   001214  EC1A  F00C         	call	_I2C_MasterOpen	;wreg free
  2052   001218                     
  2053                           ;mcc_generated_files/i2c_master.c: 204:         returnValue = I2C_NOERR;
  2054   001218  0E00               	movlw	0
  2055   00121A  6E2D               	movwf	I2C_Open@returnValue^0,c
  2056   00121C                     l1770:
  2057                           
  2058                           ;mcc_generated_files/i2c_master.c: 206:     return returnValue;
  2059   00121C  502D               	movf	I2C_Open@returnValue^0,w,c
  2060   00121E  0012               	return		;funcret
  2061   001220                     __end_of_I2C_Open:
  2062                           	callstack 0
  2063                           
  2064 ;; *************** function _I2C_MasterOpen *****************
  2065 ;; Defined at:
  2066 ;;		line 543 in file "mcc_generated_files/i2c_master.c"
  2067 ;; Parameters:    Size  Location     Type
  2068 ;;		None
  2069 ;; Auto vars:     Size  Location     Type
  2070 ;;		None
  2071 ;; Return value:  Size  Location     Type
  2072 ;;                  1    wreg      _Bool 
  2073 ;; Registers used:
  2074 ;;		wreg, status,2
  2075 ;; Tracked objects:
  2076 ;;		On entry : 0/0
  2077 ;;		On exit  : 0/0
  2078 ;;		Unchanged: 0/0
  2079 ;; Data sizes:     COMRAM   BANK0   BANK1   BANK2   BANK3   BANK4   BANK5   BANK6   BANK7   BANK8   BANK9  BANK10  BANK1
      +1  BANK12  BANK13  BANK14  BANK15
  2080 ;;      Params:         0       0       0       0       0       0       0       0       0       0       0       0       
      +0       0       0       0       0
  2081 ;;      Locals:         0       0       0       0       0       0       0       0       0       0       0       0       
      +0       0       0       0       0
  2082 ;;      Temps:          0       0       0       0       0       0       0       0       0       0       0       0       
      +0       0       0       0       0
  2083 ;;      Totals:         0       0       0       0       0       0       0       0       0       0       0       0       
      +0       0       0       0       0
  2084 ;;Total ram usage:        0 bytes
  2085 ;; Hardware stack levels used: 1
  2086 ;; This function calls:
  2087 ;;		Nothing
  2088 ;; This function is called by:
  2089 ;;		_I2C_Open
  2090 ;; This function uses a non-reentrant model
  2091 ;;
  2092                           
  2093                           	psect	text21
  2094   001834                     __ptext21:
  2095                           	callstack 0
  2096   001834                     _I2C_MasterOpen:
  2097                           	callstack 27
  2098   001834                     
  2099                           ;mcc_generated_files/i2c_master.c: 545:     if(!SSPCON1bits.SSPEN)
  2100   001834  BAC6               	btfsc	198,5,c	;volatile
  2101   001836  EF1F  F00C         	goto	u161
  2102   00183A  EF21  F00C         	goto	u160
  2103   00183E                     u161:
  2104   00183E  EF2A  F00C         	goto	l497
  2105   001842                     u160:
  2106   001842                     
  2107                           ;mcc_generated_files/i2c_master.c: 546:     {;mcc_generated_files/i2c_master.c: 547:    
      +                               SSPSTAT = 0x80;
  2108   001842  0E80               	movlw	128
  2109   001844  6EC7               	movwf	199,c	;volatile
  2110                           
  2111                           ;mcc_generated_files/i2c_master.c: 548:         SSPCON1 = 0x08;
  2112   001846  0E08               	movlw	8
  2113   001848  6EC6               	movwf	198,c	;volatile
  2114                           
  2115                           ;mcc_generated_files/i2c_master.c: 549:         SSPCON2 = 0x00;
  2116   00184A  0E00               	movlw	0
  2117   00184C  6EC5               	movwf	197,c	;volatile
  2118                           
  2119                           ;mcc_generated_files/i2c_master.c: 550:         SSPADD = 0x27;
  2120   00184E  0E27               	movlw	39
  2121   001850  6EC8               	movwf	200,c	;volatile
  2122   001852                     
  2123                           ;mcc_generated_files/i2c_master.c: 551:         SSPCON1bits.SSPEN = 1;
  2124   001852  8AC6               	bsf	198,5,c	;volatile
  2125   001854                     l497:
  2126   001854  0012               	return		;funcret
  2127   001856                     __end_of_I2C_MasterOpen:
  2128                           	callstack 0
  2129                           
  2130 ;; *************** function _I2C_MasterWrite *****************
  2131 ;; Defined at:
  2132 ;;		line 251 in file "mcc_generated_files/i2c_master.c"
  2133 ;; Parameters:    Size  Location     Type
  2134 ;;		None
  2135 ;; Auto vars:     Size  Location     Type
  2136 ;;		None
  2137 ;; Return value:  Size  Location     Type
  2138 ;;                  1    wreg      enum E358
  2139 ;; Registers used:
  2140 ;;		wreg, fsr2l, fsr2h, status,2, status,0, pcl, pclath, pclatu, tosl, tblptrl, tblptrh, tblptru, prodl, prodh, cstack
  2141 ;; Tracked objects:
  2142 ;;		On entry : 0/0
  2143 ;;		On exit  : 0/0
  2144 ;;		Unchanged: 0/0
  2145 ;; Data sizes:     COMRAM   BANK0   BANK1   BANK2   BANK3   BANK4   BANK5   BANK6   BANK7   BANK8   BANK9  BANK10  BANK1
      +1  BANK12  BANK13  BANK14  BANK15
  2146 ;;      Params:         0       0       0       0       0       0       0       0       0       0       0       0       
      +0       0       0       0       0
  2147 ;;      Locals:         0       0       0       0       0       0       0       0       0       0       0       0       
      +0       0       0       0       0
  2148 ;;      Temps:          0       0       0       0       0       0       0       0       0       0       0       0       
      +0       0       0       0       0
  2149 ;;      Totals:         0       0       0       0       0       0       0       0       0       0       0       0       
      +0       0       0       0       0
  2150 ;;Total ram usage:        0 bytes
  2151 ;; Hardware stack levels used: 1
  2152 ;; Hardware stack levels required when called: 7
  2153 ;; This function calls:
  2154 ;;		_I2C_MasterOperation
  2155 ;; This function is called by:
  2156 ;;		_I2C_Read1ByteRegister
  2157 ;;		_I2C_Write1ByteRegister
  2158 ;;		_I2C_Read2ByteRegister
  2159 ;;		_I2C_Write2ByteRegister
  2160 ;;		_I2C_WriteNBytes
  2161 ;;		_I2C_ReadDataBlock
  2162 ;; This function uses a non-reentrant model
  2163 ;;
  2164                           
  2165                           	psect	text22
  2166   0019EE                     __ptext22:
  2167                           	callstack 0
  2168   0019EE                     _I2C_MasterWrite:
  2169                           	callstack 21
  2170   0019EE                     
  2171                           ;mcc_generated_files/i2c_master.c: 253:     return I2C_MasterOperation(0);;	Return value
      +                           of _I2C_MasterWrite is never used
  2172   0019EE  0E00               	movlw	0
  2173   0019F0  EC18  F00B         	call	_I2C_MasterOperation
  2174   0019F4  0012               	return		;funcret
  2175   0019F6                     __end_of_I2C_MasterWrite:
  2176                           	callstack 0
  2177                           
  2178 ;; *************** function _I2C_MasterOperation *****************
  2179 ;; Defined at:
  2180 ;;		line 224 in file "mcc_generated_files/i2c_master.c"
  2181 ;; Parameters:    Size  Location     Type
  2182 ;;  read            1    wreg     _Bool 
  2183 ;; Auto vars:     Size  Location     Type
  2184 ;;  read            1   15[COMRAM] _Bool 
  2185 ;;  returnValue     1   16[COMRAM] enum E358
  2186 ;; Return value:  Size  Location     Type
  2187 ;;                  1    wreg      enum E358
  2188 ;; Registers used:
  2189 ;;		wreg, fsr2l, fsr2h, status,2, status,0, pcl, pclath, pclatu, tosl, tblptrl, tblptrh, tblptru, prodl, prodh, cstack
  2190 ;; Tracked objects:
  2191 ;;		On entry : 0/0
  2192 ;;		On exit  : 0/0
  2193 ;;		Unchanged: 0/0
  2194 ;; Data sizes:     COMRAM   BANK0   BANK1   BANK2   BANK3   BANK4   BANK5   BANK6   BANK7   BANK8   BANK9  BANK10  BANK1
      +1  BANK12  BANK13  BANK14  BANK15
  2195 ;;      Params:         0       0       0       0       0       0       0       0       0       0       0       0       
      +0       0       0       0       0
  2196 ;;      Locals:         2       0       0       0       0       0       0       0       0       0       0       0       
      +0       0       0       0       0
  2197 ;;      Temps:          0       0       0       0       0       0       0       0       0       0       0       0       
      +0       0       0       0       0
  2198 ;;      Totals:         2       0       0       0       0       0       0       0       0       0       0       0       
      +0       0       0       0       0
  2199 ;;Total ram usage:        2 bytes
  2200 ;; Hardware stack levels used: 1
  2201 ;; Hardware stack levels required when called: 6
  2202 ;; This function calls:
  2203 ;;		_I2C_MasterStart
  2204 ;;		_I2C_Poller
  2205 ;; This function is called by:
  2206 ;;		_I2C_MasterWrite
  2207 ;;		_I2C_MasterRead
  2208 ;; This function uses a non-reentrant model
  2209 ;;
  2210                           
  2211                           	psect	text23
  2212   001630                     __ptext23:
  2213                           	callstack 0
  2214   001630                     _I2C_MasterOperation:
  2215                           	callstack 21
  2216                           
  2217                           ;incstack = 0
  2218                           ;I2C_MasterOperation@read stored from wreg
  2219   001630  6E3B               	movwf	I2C_MasterOperation@read^0,c
  2220   001632                     
  2221                           ;mcc_generated_files/i2c_master.c: 224: i2c_error_t I2C_MasterOperation(_Bool read);mcc_
      +                          generated_files/i2c_master.c: 225: {;mcc_generated_files/i2c_master.c: 226:     i2c_erro
      +                          r_t returnValue = I2C_BUSY;
  2222   001632  0E01               	movlw	1
  2223   001634  6E3C               	movwf	I2C_MasterOperation@returnValue^0,c
  2224   001636                     
  2225                           ;mcc_generated_files/i2c_master.c: 227:     if(!I2C_Status.busy)
  2226   001636  B224               	btfsc	(_I2C_Status+35)^0,1,c
  2227   001638  EF20  F00B         	goto	u681
  2228   00163C  EF22  F00B         	goto	u680
  2229   001640                     u681:
  2230   001640  EF37  F00B         	goto	l2486
  2231   001644                     u680:
  2232   001644                     
  2233                           ;mcc_generated_files/i2c_master.c: 228:     {;mcc_generated_files/i2c_master.c: 229:    
      +                               I2C_Status.busy = 1;
  2234   001644  8224               	bsf	(_I2C_Status+35)^0,1,c
  2235   001646                     
  2236                           ;mcc_generated_files/i2c_master.c: 230:         returnValue = I2C_NOERR;
  2237   001646  0E00               	movlw	0
  2238   001648  6E3C               	movwf	I2C_MasterOperation@returnValue^0,c
  2239   00164A                     
  2240                           ;mcc_generated_files/i2c_master.c: 232:         if(read)
  2241   00164A  503B               	movf	I2C_MasterOperation@read^0,w,c
  2242   00164C  B4D8               	btfsc	status,2,c
  2243   00164E  EF2B  F00B         	goto	u691
  2244   001652  EF2D  F00B         	goto	u690
  2245   001656                     u691:
  2246   001656  EF31  F00B         	goto	l2480
  2247   00165A                     u690:
  2248   00165A                     
  2249                           ;mcc_generated_files/i2c_master.c: 233:         {;mcc_generated_files/i2c_master.c: 234:
      +                                       I2C_Status.state = I2C_SEND_ADR_READ;
  2250   00165A  0E01               	movlw	1
  2251   00165C  6E22               	movwf	(_I2C_Status+33)^0,c
  2252                           
  2253                           ;mcc_generated_files/i2c_master.c: 235:         }
  2254   00165E  EF33  F00B         	goto	l2482
  2255   001662                     l2480:
  2256                           
  2257                           ;mcc_generated_files/i2c_master.c: 237:         {;mcc_generated_files/i2c_master.c: 238:
      +                                       I2C_Status.state = I2C_SEND_ADR_WRITE;
  2258   001662  0E02               	movlw	2
  2259   001664  6E22               	movwf	(_I2C_Status+33)^0,c
  2260   001666                     l2482:
  2261                           
  2262                           ;mcc_generated_files/i2c_master.c: 240:         I2C_MasterStart();
  2263   001666  EC2F  F00D         	call	_I2C_MasterStart	;wreg free
  2264   00166A                     
  2265                           ;mcc_generated_files/i2c_master.c: 241:         I2C_Poller();
  2266   00166A  EC3C  F00C         	call	_I2C_Poller	;wreg free
  2267   00166E                     l2486:
  2268                           
  2269                           ;mcc_generated_files/i2c_master.c: 243:     return returnValue;
  2270   00166E  503C               	movf	I2C_MasterOperation@returnValue^0,w,c
  2271   001670  0012               	return		;funcret
  2272   001672                     __end_of_I2C_MasterOperation:
  2273                           	callstack 0
  2274                           
  2275 ;; *************** function _I2C_Poller *****************
  2276 ;; Defined at:
  2277 ;;		line 312 in file "mcc_generated_files/i2c_master.c"
  2278 ;; Parameters:    Size  Location     Type
  2279 ;;		None
  2280 ;; Auto vars:     Size  Location     Type
  2281 ;;		None
  2282 ;; Return value:  Size  Location     Type
  2283 ;;                  1    wreg      void 
  2284 ;; Registers used:
  2285 ;;		wreg, fsr2l, fsr2h, status,2, status,0, pcl, pclath, pclatu, tosl, tblptrl, tblptrh, tblptru, prodl, prodh, cstack
  2286 ;; Tracked objects:
  2287 ;;		On entry : 0/0
  2288 ;;		On exit  : 0/0
  2289 ;;		Unchanged: 0/0
  2290 ;; Data sizes:     COMRAM   BANK0   BANK1   BANK2   BANK3   BANK4   BANK5   BANK6   BANK7   BANK8   BANK9  BANK10  BANK1
      +1  BANK12  BANK13  BANK14  BANK15
  2291 ;;      Params:         0       0       0       0       0       0       0       0       0       0       0       0       
      +0       0       0       0       0
  2292 ;;      Locals:         0       0       0       0       0       0       0       0       0       0       0       0       
      +0       0       0       0       0
  2293 ;;      Temps:          0       0       0       0       0       0       0       0       0       0       0       0       
      +0       0       0       0       0
  2294 ;;      Totals:         0       0       0       0       0       0       0       0       0       0       0       0       
      +0       0       0       0       0
  2295 ;;Total ram usage:        0 bytes
  2296 ;; Hardware stack levels used: 1
  2297 ;; Hardware stack levels required when called: 5
  2298 ;; This function calls:
  2299 ;;		_I2C_MasterFsm
  2300 ;;		_I2C_MasterWaitForEvent
  2301 ;; This function is called by:
  2302 ;;		_I2C_MasterOperation
  2303 ;; This function uses a non-reentrant model
  2304 ;;
  2305                           
  2306                           	psect	text24
  2307   001878                     __ptext24:
  2308                           	callstack 0
  2309   001878                     _I2C_Poller:
  2310                           	callstack 21
  2311   001878                     
  2312                           ;mcc_generated_files/i2c_master.c: 314:     while(I2C_Status.busy)
  2313   001878  EF42  F00C         	goto	l2466
  2314   00187C                     l2462:
  2315                           
  2316                           ;mcc_generated_files/i2c_master.c: 315:     {;mcc_generated_files/i2c_master.c: 316:    
      +                               I2C_MasterWaitForEvent();
  2317   00187C  ECBE  F00C         	call	_I2C_MasterWaitForEvent	;wreg free
  2318   001880                     
  2319                           ;mcc_generated_files/i2c_master.c: 317:         I2C_MasterFsm();
  2320   001880  ECB2  F00A         	call	_I2C_MasterFsm	;wreg free
  2321   001884                     l2466:
  2322                           
  2323                           ;mcc_generated_files/i2c_master.c: 314:     while(I2C_Status.busy)
  2324   001884  B224               	btfsc	(_I2C_Status+35)^0,1,c
  2325   001886  EF47  F00C         	goto	u671
  2326   00188A  EF49  F00C         	goto	u670
  2327   00188E                     u671:
  2328   00188E  EF3E  F00C         	goto	l2462
  2329   001892                     u670:
  2330   001892  0012               	return		;funcret
  2331   001894                     __end_of_I2C_Poller:
  2332                           	callstack 0
  2333                           
  2334 ;; *************** function _I2C_MasterWaitForEvent *****************
  2335 ;; Defined at:
  2336 ;;		line 650 in file "mcc_generated_files/i2c_master.c"
  2337 ;; Parameters:    Size  Location     Type
  2338 ;;		None
  2339 ;; Auto vars:     Size  Location     Type
  2340 ;;		None
  2341 ;; Return value:  Size  Location     Type
  2342 ;;                  1    wreg      void 
  2343 ;; Registers used:
  2344 ;;		None
  2345 ;; Tracked objects:
  2346 ;;		On entry : 0/0
  2347 ;;		On exit  : 0/0
  2348 ;;		Unchanged: 0/0
  2349 ;; Data sizes:     COMRAM   BANK0   BANK1   BANK2   BANK3   BANK4   BANK5   BANK6   BANK7   BANK8   BANK9  BANK10  BANK1
      +1  BANK12  BANK13  BANK14  BANK15
  2350 ;;      Params:         0       0       0       0       0       0       0       0       0       0       0       0       
      +0       0       0       0       0
  2351 ;;      Locals:         0       0       0       0       0       0       0       0       0       0       0       0       
      +0       0       0       0       0
  2352 ;;      Temps:          0       0       0       0       0       0       0       0       0       0       0       0       
      +0       0       0       0       0
  2353 ;;      Totals:         0       0       0       0       0       0       0       0       0       0       0       0       
      +0       0       0       0       0
  2354 ;;Total ram usage:        0 bytes
  2355 ;; Hardware stack levels used: 1
  2356 ;; This function calls:
  2357 ;;		Nothing
  2358 ;; This function is called by:
  2359 ;;		_I2C_Poller
  2360 ;; This function uses a non-reentrant model
  2361 ;;
  2362                           
  2363                           	psect	text25
  2364   00197C                     __ptext25:
  2365                           	callstack 0
  2366   00197C                     _I2C_MasterWaitForEvent:
  2367                           	callstack 25
  2368   00197C                     l554:
  2369                           
  2370                           ;mcc_generated_files/i2c_master.c: 653:     {;mcc_generated_files/i2c_master.c: 654:    
      +                               if(PIR1bits.SSPIF)
  2371   00197C  A69E               	btfss	158,3,c	;volatile
  2372   00197E  EFC3  F00C         	goto	u111
  2373   001982  EFC5  F00C         	goto	u110
  2374   001986                     u111:
  2375   001986  EFBE  F00C         	goto	l554
  2376   00198A                     u110:
  2377   00198A  0012               	return		;funcret
  2378   00198C                     __end_of_I2C_MasterWaitForEvent:
  2379                           	callstack 0
  2380                           
  2381 ;; *************** function _I2C_MasterFsm *****************
  2382 ;; Defined at:
  2383 ;;		line 321 in file "mcc_generated_files/i2c_master.c"
  2384 ;; Parameters:    Size  Location     Type
  2385 ;;		None
  2386 ;; Auto vars:     Size  Location     Type
  2387 ;;		None
  2388 ;; Return value:  Size  Location     Type
  2389 ;;                  1    wreg      void 
  2390 ;; Registers used:
  2391 ;;		wreg, fsr2l, fsr2h, status,2, status,0, pcl, pclath, pclatu, tosl, tblptrl, tblptrh, tblptru, prodl, prodh, cstack
  2392 ;; Tracked objects:
  2393 ;;		On entry : 0/0
  2394 ;;		On exit  : 0/0
  2395 ;;		Unchanged: 0/0
  2396 ;; Data sizes:     COMRAM   BANK0   BANK1   BANK2   BANK3   BANK4   BANK5   BANK6   BANK7   BANK8   BANK9  BANK10  BANK1
      +1  BANK12  BANK13  BANK14  BANK15
  2397 ;;      Params:         0       0       0       0       0       0       0       0       0       0       0       0       
      +0       0       0       0       0
  2398 ;;      Locals:         0       0       0       0       0       0       0       0       0       0       0       0       
      +0       0       0       0       0
  2399 ;;      Temps:          2       0       0       0       0       0       0       0       0       0       0       0       
      +0       0       0       0       0
  2400 ;;      Totals:         2       0       0       0       0       0       0       0       0       0       0       0       
      +0       0       0       0       0
  2401 ;;Total ram usage:        2 bytes
  2402 ;; Hardware stack levels used: 1
  2403 ;; Hardware stack levels required when called: 4
  2404 ;; This function calls:
  2405 ;;		_I2C_DO_ADDRESS_NACK
  2406 ;;		_I2C_DO_IDLE
  2407 ;;		_I2C_DO_RCEN
  2408 ;;		_I2C_DO_RESET
  2409 ;;		_I2C_DO_RX
  2410 ;;		_I2C_DO_RX_ACK
  2411 ;;		_I2C_DO_RX_NACK_RESTART
  2412 ;;		_I2C_DO_RX_NACK_STOP
  2413 ;;		_I2C_DO_SEND_ADR_READ
  2414 ;;		_I2C_DO_SEND_ADR_WRITE
  2415 ;;		_I2C_DO_SEND_RESTART
  2416 ;;		_I2C_DO_SEND_RESTART_READ
  2417 ;;		_I2C_DO_SEND_RESTART_WRITE
  2418 ;;		_I2C_DO_SEND_STOP
  2419 ;;		_I2C_DO_TX
  2420 ;;		_I2C_DO_TX_EMPTY
  2421 ;;		_I2C_MasterClearIrq
  2422 ;;		_I2C_MasterIsNack
  2423 ;; This function is called by:
  2424 ;;		_I2C_Poller
  2425 ;; This function uses a non-reentrant model
  2426 ;;
  2427                           
  2428                           	psect	text26
  2429   001564                     __ptext26:
  2430                           	callstack 0
  2431   001564                     _I2C_MasterFsm:
  2432                           	callstack 21
  2433   001564                     
  2434                           ;mcc_generated_files/i2c_master.c: 323:     I2C_MasterClearIrq();
  2435   001564  EC35  F00D         	call	_I2C_MasterClearIrq	;wreg free
  2436   001568                     
  2437                           ;mcc_generated_files/i2c_master.c: 325:     if(I2C_Status.addressNackCheck && I2C_Master
      +                          IsNack())
  2438   001568  A024               	btfss	(_I2C_Status+35)^0,0,c
  2439   00156A  EFB9  F00A         	goto	u641
  2440   00156E  EFBB  F00A         	goto	u640
  2441   001572                     u641:
  2442   001572  EFC7  F00A         	goto	l2458
  2443   001576                     u640:
  2444   001576  EC90  F00C         	call	_I2C_MasterIsNack	;wreg free
  2445   00157A  0900               	iorlw	0
  2446   00157C  B4D8               	btfsc	status,2,c
  2447   00157E  EFC3  F00A         	goto	u651
  2448   001582  EFC5  F00A         	goto	u650
  2449   001586                     u651:
  2450   001586  EFC7  F00A         	goto	l2458
  2451   00158A                     u650:
  2452   00158A                     
  2453                           ;mcc_generated_files/i2c_master.c: 326:     {;mcc_generated_files/i2c_master.c: 327:    
      +                               I2C_Status.state = I2C_ADDRESS_NACK;
  2454   00158A  0E0F               	movlw	15
  2455   00158C  6E22               	movwf	(_I2C_Status+33)^0,c
  2456   00158E                     l2458:
  2457                           
  2458                           ;mcc_generated_files/i2c_master.c: 329:     I2C_Status.state = i2c_fsmStateTable[I2C_Sta
      +                          tus.state]();
  2459   00158E  5022               	movf	(_I2C_Status+33)^0,w,c
  2460   001590  0D02               	mullw	2
  2461   001592  0E01               	movlw	low _i2c_fsmStateTable
  2462   001594  24F3               	addwf	243,w,c
  2463   001596  6EF6               	movwf	tblptrl,c
  2464   001598  0E10               	movlw	high _i2c_fsmStateTable
  2465   00159A  20F4               	addwfc	244,w,c
  2466   00159C  6EF7               	movwf	tblptrh,c
  2467   00159E                     	if	1	;There are 3 active tblptr bytes
  2468   00159E  6AF8               	clrf	tblptru,c
  2469   0015A0  0E00               	movlw	low (__mediumconst shr (0+16))
  2470   0015A2  22F8               	addwfc	tblptru,f,c
  2471   0015A4                     	endif
  2472   0015A4  0009               	tblrd		*+
  2473   0015A6  CFF5 F039          	movff	tablat,??_I2C_MasterFsm
  2474   0015AA  0009               	tblrd		*+
  2475   0015AC  CFF5 F03A          	movff	tablat,??_I2C_MasterFsm+1
  2476   0015B0  D802               	call	u668
  2477   0015B2  EFE4  F00A         	goto	u669
  2478   0015B6                     u668:
  2479   0015B6  0005               	push	
  2480   0015B8  6EFA               	movwf	pclath,c
  2481   0015BA  5039               	movf	??_I2C_MasterFsm^0,w,c
  2482   0015BC  6EFD               	movwf	tosl,c
  2483   0015BE  503A               	movf	(??_I2C_MasterFsm+1)^0,w,c
  2484   0015C0  6EFE               	movwf	tosh,c
  2485   0015C2  6AFF               	clrf	tosu,c
  2486   0015C4  50FA               	movf	pclath,w,c
  2487   0015C6  0012               	return		;indir
  2488   0015C8                     u669:
  2489   0015C8  6E22               	movwf	(_I2C_Status+33)^0,c
  2490   0015CA  0012               	return		;funcret
  2491   0015CC                     __end_of_I2C_MasterFsm:
  2492                           	callstack 0
  2493                           
  2494 ;; *************** function _I2C_DO_ADDRESS_NACK *****************
  2495 ;; Defined at:
  2496 ;;		line 500 in file "mcc_generated_files/i2c_master.c"
  2497 ;; Parameters:    Size  Location     Type
  2498 ;;		None
  2499 ;; Auto vars:     Size  Location     Type
  2500 ;;		None
  2501 ;; Return value:  Size  Location     Type
  2502 ;;                  1    wreg      enum E3115
  2503 ;; Registers used:
  2504 ;;		wreg, fsr2l, fsr2h, status,2, status,0, pcl, pclath, pclatu, tosl, prodl, prodh, cstack
  2505 ;; Tracked objects:
  2506 ;;		On entry : 0/0
  2507 ;;		On exit  : 0/0
  2508 ;;		Unchanged: 0/0
  2509 ;; Data sizes:     COMRAM   BANK0   BANK1   BANK2   BANK3   BANK4   BANK5   BANK6   BANK7   BANK8   BANK9  BANK10  BANK1
      +1  BANK12  BANK13  BANK14  BANK15
  2510 ;;      Params:         0       0       0       0       0       0       0       0       0       0       0       0       
      +0       0       0       0       0
  2511 ;;      Locals:         0       0       0       0       0       0       0       0       0       0       0       0       
      +0       0       0       0       0
  2512 ;;      Temps:          2       0       0       0       0       0       0       0       0       0       0       0       
      +0       0       0       0       0
  2513 ;;      Totals:         2       0       0       0       0       0       0       0       0       0       0       0       
      +0       0       0       0       0
  2514 ;;Total ram usage:        2 bytes
  2515 ;; Hardware stack levels used: 1
  2516 ;; Hardware stack levels required when called: 3
  2517 ;; This function calls:
  2518 ;;		NULL
  2519 ;;		_I2C_CallbackReturnReset
  2520 ;;		_I2C_CallbackReturnStop
  2521 ;;		_I2C_DO_SEND_RESTART
  2522 ;;		_I2C_DO_SEND_STOP
  2523 ;;		_rd1RegCompleteHandler
  2524 ;;		_rd2RegCompleteHandler
  2525 ;;		_rdBlkRegCompleteHandler
  2526 ;;		_wr1RegCompleteHandler
  2527 ;;		_wr2RegCompleteHandler
  2528 ;; This function is called by:
  2529 ;;		_I2C_MasterFsm
  2530 ;; This function uses a non-reentrant model
  2531 ;;
  2532                           
  2533                           	psect	text27
  2534   0015CC                     __ptext27:
  2535                           	callstack 0
  2536   0015CC                     _I2C_DO_ADDRESS_NACK:
  2537                           	callstack 21
  2538   0015CC                     
  2539                           ;mcc_generated_files/i2c_master.c: 502:     I2C_Status.addressNackCheck = 0;
  2540   0015CC  9024               	bcf	(_I2C_Status+35)^0,0,c
  2541   0015CE                     
  2542                           ;mcc_generated_files/i2c_master.c: 503:     I2C_Status.error = I2C_FAIL;
  2543   0015CE  0E02               	movlw	2
  2544   0015D0  6E23               	movwf	(_I2C_Status+34)^0,c
  2545                           
  2546                           ;mcc_generated_files/i2c_master.c: 504:     switch(I2C_Status.callbackTable[I2C_ADDR_NAC
      +                          K](I2C_Status.callbackPayload[I2C_ADDR_NACK]))
  2547   0015D2  EFF3  F00A         	goto	l2444
  2548   0015D6                     l2434:
  2549                           
  2550                           ;mcc_generated_files/i2c_master.c: 508:             return I2C_DO_SEND_RESTART();
  2551   0015D6  EC0B  F00D         	call	_I2C_DO_SEND_RESTART	;wreg free
  2552   0015DA  EF17  F00B         	goto	l476
  2553   0015DE                     l2438:
  2554                           
  2555                           ;mcc_generated_files/i2c_master.c: 510:             return I2C_DO_SEND_STOP();
  2556   0015DE  EC07  F00D         	call	_I2C_DO_SEND_STOP	;wreg free
  2557   0015E2  EF17  F00B         	goto	l476
  2558   0015E6                     l2444:
  2559   0015E6  C011  F035         	movff	_I2C_Status+16,I2C_CallbackReturnReset@funPtr
  2560   0015EA  C012  F036         	movff	_I2C_Status+17,I2C_CallbackReturnReset@funPtr+1
  2561   0015EE  D802               	call	u638
  2562   0015F0  EF03  F00B         	goto	u639
  2563   0015F4                     u638:
  2564   0015F4  0005               	push	
  2565   0015F6  6EFA               	movwf	pclath,c
  2566   0015F8  5005               	movf	(_I2C_Status+4)^0,w,c
  2567   0015FA  6EFD               	movwf	tosl,c
  2568   0015FC  5006               	movf	(_I2C_Status+5)^0,w,c
  2569   0015FE  6EFE               	movwf	tosh,c
  2570   001600  6AFF               	clrf	tosu,c
  2571   001602  50FA               	movf	pclath,w,c
  2572   001604  0012               	return		;indir
  2573   001606                     u639:
  2574   001606  6E37               	movwf	??_I2C_DO_ADDRESS_NACK^0,c
  2575   001608  6A38               	clrf	(??_I2C_DO_ADDRESS_NACK+1)^0,c
  2576                           
  2577                           ; Switch on 2 bytes has been partitioned into a top level switch of size 1, and 1 sub-sw
      +                          itches
  2578                           ; Switch size 1, requested type "simple"
  2579                           ; Number of cases is 1, Range of values is 0 to 0
  2580                           ; switch strategies available:
  2581                           ; Name         Instructions Cycles
  2582                           ; simple_byte            4     3 (average)
  2583                           ;	Chosen strategy is simple_byte
  2584   00160A  5038               	movf	(??_I2C_DO_ADDRESS_NACK+1)^0,w,c
  2585   00160C  0A00               	xorlw	0	; case 0
  2586   00160E  B4D8               	btfsc	status,2,c
  2587   001610  EF0C  F00B         	goto	l2760
  2588   001614  EFEF  F00A         	goto	l2438
  2589   001618                     l2760:
  2590                           
  2591                           ; Switch size 1, requested type "simple"
  2592                           ; Number of cases is 2, Range of values is 2 to 3
  2593                           ; switch strategies available:
  2594                           ; Name         Instructions Cycles
  2595                           ; simple_byte            7     4 (average)
  2596                           ;	Chosen strategy is simple_byte
  2597   001618  5037               	movf	??_I2C_DO_ADDRESS_NACK^0,w,c
  2598   00161A  0A02               	xorlw	2	; case 2
  2599   00161C  B4D8               	btfsc	status,2,c
  2600   00161E  EFEB  F00A         	goto	l2434
  2601   001622  0A01               	xorlw	1	; case 3
  2602   001624  B4D8               	btfsc	status,2,c
  2603   001626  EFEB  F00A         	goto	l2434
  2604   00162A  EFEF  F00A         	goto	l2438
  2605   00162E                     l476:
  2606   00162E  0012               	return		;funcret
  2607   001630                     __end_of_I2C_DO_ADDRESS_NACK:
  2608                           	callstack 0
  2609                           
  2610 ;; *************** function _I2C_DO_RESET *****************
  2611 ;; Defined at:
  2612 ;;		line 494 in file "mcc_generated_files/i2c_master.c"
  2613 ;; Parameters:    Size  Location     Type
  2614 ;;		None
  2615 ;; Auto vars:     Size  Location     Type
  2616 ;;		None
  2617 ;; Return value:  Size  Location     Type
  2618 ;;                  1    wreg      enum E3115
  2619 ;; Registers used:
  2620 ;;		wreg, status,2
  2621 ;; Tracked objects:
  2622 ;;		On entry : 0/0
  2623 ;;		On exit  : 0/0
  2624 ;;		Unchanged: 0/0
  2625 ;; Data sizes:     COMRAM   BANK0   BANK1   BANK2   BANK3   BANK4   BANK5   BANK6   BANK7   BANK8   BANK9  BANK10  BANK1
      +1  BANK12  BANK13  BANK14  BANK15
  2626 ;;      Params:         0       0       0       0       0       0       0       0       0       0       0       0       
      +0       0       0       0       0
  2627 ;;      Locals:         0       0       0       0       0       0       0       0       0       0       0       0       
      +0       0       0       0       0
  2628 ;;      Temps:          0       0       0       0       0       0       0       0       0       0       0       0       
      +0       0       0       0       0
  2629 ;;      Totals:         0       0       0       0       0       0       0       0       0       0       0       0       
      +0       0       0       0       0
  2630 ;;Total ram usage:        0 bytes
  2631 ;; Hardware stack levels used: 1
  2632 ;; This function calls:
  2633 ;;		Nothing
  2634 ;; This function is called by:
  2635 ;;		_I2C_MasterFsm
  2636 ;; This function uses a non-reentrant model
  2637 ;;
  2638                           
  2639                           	psect	text28
  2640   0019D0                     __ptext28:
  2641                           	callstack 0
  2642   0019D0                     _I2C_DO_RESET:
  2643                           	callstack 24
  2644   0019D0                     
  2645                           ;mcc_generated_files/i2c_master.c: 496:     I2C_Status.busy = 0;
  2646   0019D0  9224               	bcf	(_I2C_Status+35)^0,1,c
  2647   0019D2                     
  2648                           ;mcc_generated_files/i2c_master.c: 497:     I2C_Status.error = I2C_NOERR;
  2649   0019D2  0E00               	movlw	0
  2650   0019D4  6E23               	movwf	(_I2C_Status+34)^0,c
  2651   0019D6                     
  2652                           ;mcc_generated_files/i2c_master.c: 498:     return I2C_RESET;
  2653   0019D6  0E0E               	movlw	14
  2654   0019D8  0012               	return		;funcret
  2655   0019DA                     __end_of_I2C_DO_RESET:
  2656                           	callstack 0
  2657                           
  2658 ;; *************** function _I2C_DO_RX_NACK_RESTART *****************
  2659 ;; Defined at:
  2660 ;;		line 488 in file "mcc_generated_files/i2c_master.c"
  2661 ;; Parameters:    Size  Location     Type
  2662 ;;		None
  2663 ;; Auto vars:     Size  Location     Type
  2664 ;;		None
  2665 ;; Return value:  Size  Location     Type
  2666 ;;                  1    wreg      enum E3115
  2667 ;; Registers used:
  2668 ;;		wreg, cstack
  2669 ;; Tracked objects:
  2670 ;;		On entry : 0/0
  2671 ;;		On exit  : 0/0
  2672 ;;		Unchanged: 0/0
  2673 ;; Data sizes:     COMRAM   BANK0   BANK1   BANK2   BANK3   BANK4   BANK5   BANK6   BANK7   BANK8   BANK9  BANK10  BANK1
      +1  BANK12  BANK13  BANK14  BANK15
  2674 ;;      Params:         0       0       0       0       0       0       0       0       0       0       0       0       
      +0       0       0       0       0
  2675 ;;      Locals:         0       0       0       0       0       0       0       0       0       0       0       0       
      +0       0       0       0       0
  2676 ;;      Temps:          0       0       0       0       0       0       0       0       0       0       0       0       
      +0       0       0       0       0
  2677 ;;      Totals:         0       0       0       0       0       0       0       0       0       0       0       0       
      +0       0       0       0       0
  2678 ;;Total ram usage:        0 bytes
  2679 ;; Hardware stack levels used: 1
  2680 ;; Hardware stack levels required when called: 1
  2681 ;; This function calls:
  2682 ;;		_I2C_MasterSendNack
  2683 ;; This function is called by:
  2684 ;;		_I2C_DO_RX
  2685 ;;		_I2C_MasterFsm
  2686 ;; This function uses a non-reentrant model
  2687 ;;
  2688                           
  2689                           	psect	text29
  2690   0019F6                     __ptext29:
  2691                           	callstack 0
  2692   0019F6                     _I2C_DO_RX_NACK_RESTART:
  2693                           	callstack 23
  2694   0019F6                     
  2695                           ;mcc_generated_files/i2c_master.c: 490:     I2C_MasterSendNack();
  2696   0019F6  EC1E  F00D         	call	_I2C_MasterSendNack	;wreg free
  2697   0019FA                     
  2698                           ;mcc_generated_files/i2c_master.c: 491:     return I2C_SEND_RESTART;
  2699   0019FA  0E09               	movlw	9
  2700   0019FC  0012               	return		;funcret
  2701   0019FE                     __end_of_I2C_DO_RX_NACK_RESTART:
  2702                           	callstack 0
  2703                           
  2704 ;; *************** function _I2C_DO_RX_NACK_STOP *****************
  2705 ;; Defined at:
  2706 ;;		line 482 in file "mcc_generated_files/i2c_master.c"
  2707 ;; Parameters:    Size  Location     Type
  2708 ;;		None
  2709 ;; Auto vars:     Size  Location     Type
  2710 ;;		None
  2711 ;; Return value:  Size  Location     Type
  2712 ;;                  1    wreg      enum E3115
  2713 ;; Registers used:
  2714 ;;		wreg, cstack
  2715 ;; Tracked objects:
  2716 ;;		On entry : 0/0
  2717 ;;		On exit  : 0/0
  2718 ;;		Unchanged: 0/0
  2719 ;; Data sizes:     COMRAM   BANK0   BANK1   BANK2   BANK3   BANK4   BANK5   BANK6   BANK7   BANK8   BANK9  BANK10  BANK1
      +1  BANK12  BANK13  BANK14  BANK15
  2720 ;;      Params:         0       0       0       0       0       0       0       0       0       0       0       0       
      +0       0       0       0       0
  2721 ;;      Locals:         0       0       0       0       0       0       0       0       0       0       0       0       
      +0       0       0       0       0
  2722 ;;      Temps:          0       0       0       0       0       0       0       0       0       0       0       0       
      +0       0       0       0       0
  2723 ;;      Totals:         0       0       0       0       0       0       0       0       0       0       0       0       
      +0       0       0       0       0
  2724 ;;Total ram usage:        0 bytes
  2725 ;; Hardware stack levels used: 1
  2726 ;; Hardware stack levels required when called: 1
  2727 ;; This function calls:
  2728 ;;		_I2C_MasterSendNack
  2729 ;; This function is called by:
  2730 ;;		_I2C_DO_RX
  2731 ;;		_I2C_MasterFsm
  2732 ;; This function uses a non-reentrant model
  2733 ;;
  2734                           
  2735                           	psect	text30
  2736   0019FE                     __ptext30:
  2737                           	callstack 0
  2738   0019FE                     _I2C_DO_RX_NACK_STOP:
  2739                           	callstack 23
  2740   0019FE                     
  2741                           ;mcc_generated_files/i2c_master.c: 484:     I2C_MasterSendNack();
  2742   0019FE  EC1E  F00D         	call	_I2C_MasterSendNack	;wreg free
  2743   001A02                     
  2744                           ;mcc_generated_files/i2c_master.c: 485:     return I2C_SEND_STOP;
  2745   001A02  0E0A               	movlw	10
  2746   001A04  0012               	return		;funcret
  2747   001A06                     __end_of_I2C_DO_RX_NACK_STOP:
  2748                           	callstack 0
  2749                           
  2750 ;; *************** function _I2C_DO_RX_ACK *****************
  2751 ;; Defined at:
  2752 ;;		line 475 in file "mcc_generated_files/i2c_master.c"
  2753 ;; Parameters:    Size  Location     Type
  2754 ;;		None
  2755 ;; Auto vars:     Size  Location     Type
  2756 ;;		None
  2757 ;; Return value:  Size  Location     Type
  2758 ;;                  1    wreg      enum E3115
  2759 ;; Registers used:
  2760 ;;		wreg, cstack
  2761 ;; Tracked objects:
  2762 ;;		On entry : 0/0
  2763 ;;		On exit  : 0/0
  2764 ;;		Unchanged: 0/0
  2765 ;; Data sizes:     COMRAM   BANK0   BANK1   BANK2   BANK3   BANK4   BANK5   BANK6   BANK7   BANK8   BANK9  BANK10  BANK1
      +1  BANK12  BANK13  BANK14  BANK15
  2766 ;;      Params:         0       0       0       0       0       0       0       0       0       0       0       0       
      +0       0       0       0       0
  2767 ;;      Locals:         0       0       0       0       0       0       0       0       0       0       0       0       
      +0       0       0       0       0
  2768 ;;      Temps:          0       0       0       0       0       0       0       0       0       0       0       0       
      +0       0       0       0       0
  2769 ;;      Totals:         0       0       0       0       0       0       0       0       0       0       0       0       
      +0       0       0       0       0
  2770 ;;Total ram usage:        0 bytes
  2771 ;; Hardware stack levels used: 1
  2772 ;; Hardware stack levels required when called: 1
  2773 ;; This function calls:
  2774 ;;		_I2C_MasterSendAck
  2775 ;; This function is called by:
  2776 ;;		_I2C_MasterFsm
  2777 ;; This function uses a non-reentrant model
  2778 ;;
  2779                           
  2780                           	psect	text31
  2781   001A06                     __ptext31:
  2782                           	callstack 0
  2783   001A06                     _I2C_DO_RX_ACK:
  2784                           	callstack 23
  2785   001A06                     
  2786                           ;mcc_generated_files/i2c_master.c: 477:     I2C_MasterSendAck();
  2787   001A06  EC1B  F00D         	call	_I2C_MasterSendAck	;wreg free
  2788   001A0A                     
  2789                           ;mcc_generated_files/i2c_master.c: 478:     return I2C_RCEN;
  2790   001A0A  0E05               	movlw	5
  2791   001A0C  0012               	return		;funcret
  2792   001A0E                     __end_of_I2C_DO_RX_ACK:
  2793                           	callstack 0
  2794                           
  2795 ;; *************** function _I2C_DO_SEND_STOP *****************
  2796 ;; Defined at:
  2797 ;;		line 469 in file "mcc_generated_files/i2c_master.c"
  2798 ;; Parameters:    Size  Location     Type
  2799 ;;		None
  2800 ;; Auto vars:     Size  Location     Type
  2801 ;;		None
  2802 ;; Return value:  Size  Location     Type
  2803 ;;                  1    wreg      enum E3115
  2804 ;; Registers used:
  2805 ;;		wreg, cstack
  2806 ;; Tracked objects:
  2807 ;;		On entry : 0/0
  2808 ;;		On exit  : 0/0
  2809 ;;		Unchanged: 0/0
  2810 ;; Data sizes:     COMRAM   BANK0   BANK1   BANK2   BANK3   BANK4   BANK5   BANK6   BANK7   BANK8   BANK9  BANK10  BANK1
      +1  BANK12  BANK13  BANK14  BANK15
  2811 ;;      Params:         0       0       0       0       0       0       0       0       0       0       0       0       
      +0       0       0       0       0
  2812 ;;      Locals:         0       0       0       0       0       0       0       0       0       0       0       0       
      +0       0       0       0       0
  2813 ;;      Temps:          0       0       0       0       0       0       0       0       0       0       0       0       
      +0       0       0       0       0
  2814 ;;      Totals:         0       0       0       0       0       0       0       0       0       0       0       0       
      +0       0       0       0       0
  2815 ;;Total ram usage:        0 bytes
  2816 ;; Hardware stack levels used: 1
  2817 ;; Hardware stack levels required when called: 1
  2818 ;; This function calls:
  2819 ;;		_I2C_MasterStop
  2820 ;; This function is called by:
  2821 ;;		_I2C_DO_TX
  2822 ;;		_I2C_DO_TX_EMPTY
  2823 ;;		_I2C_DO_ADDRESS_NACK
  2824 ;;		_I2C_MasterFsm
  2825 ;; This function uses a non-reentrant model
  2826 ;;
  2827                           
  2828                           	psect	text32
  2829   001A0E                     __ptext32:
  2830                           	callstack 0
  2831   001A0E                     _I2C_DO_SEND_STOP:
  2832                           	callstack 22
  2833   001A0E                     
  2834                           ;mcc_generated_files/i2c_master.c: 471:     I2C_MasterStop();
  2835   001A0E  EC2B  F00D         	call	_I2C_MasterStop	;wreg free
  2836   001A12                     
  2837                           ;mcc_generated_files/i2c_master.c: 472:     return I2C_IDLE;
  2838   001A12  0E00               	movlw	0
  2839   001A14  0012               	return		;funcret
  2840   001A16                     __end_of_I2C_DO_SEND_STOP:
  2841                           	callstack 0
  2842                           
  2843 ;; *************** function _I2C_DO_SEND_RESTART *****************
  2844 ;; Defined at:
  2845 ;;		line 463 in file "mcc_generated_files/i2c_master.c"
  2846 ;; Parameters:    Size  Location     Type
  2847 ;;		None
  2848 ;; Auto vars:     Size  Location     Type
  2849 ;;		None
  2850 ;; Return value:  Size  Location     Type
  2851 ;;                  1    wreg      enum E3115
  2852 ;; Registers used:
  2853 ;;		wreg, cstack
  2854 ;; Tracked objects:
  2855 ;;		On entry : 0/0
  2856 ;;		On exit  : 0/0
  2857 ;;		Unchanged: 0/0
  2858 ;; Data sizes:     COMRAM   BANK0   BANK1   BANK2   BANK3   BANK4   BANK5   BANK6   BANK7   BANK8   BANK9  BANK10  BANK1
      +1  BANK12  BANK13  BANK14  BANK15
  2859 ;;      Params:         0       0       0       0       0       0       0       0       0       0       0       0       
      +0       0       0       0       0
  2860 ;;      Locals:         0       0       0       0       0       0       0       0       0       0       0       0       
      +0       0       0       0       0
  2861 ;;      Temps:          0       0       0       0       0       0       0       0       0       0       0       0       
      +0       0       0       0       0
  2862 ;;      Totals:         0       0       0       0       0       0       0       0       0       0       0       0       
      +0       0       0       0       0
  2863 ;;Total ram usage:        0 bytes
  2864 ;; Hardware stack levels used: 1
  2865 ;; Hardware stack levels required when called: 1
  2866 ;; This function calls:
  2867 ;;		_I2C_MasterEnableRestart
  2868 ;; This function is called by:
  2869 ;;		_I2C_DO_TX_EMPTY
  2870 ;;		_I2C_DO_ADDRESS_NACK
  2871 ;;		_I2C_MasterFsm
  2872 ;; This function uses a non-reentrant model
  2873 ;;
  2874                           
  2875                           	psect	text33
  2876   001A16                     __ptext33:
  2877                           	callstack 0
  2878   001A16                     _I2C_DO_SEND_RESTART:
  2879                           	callstack 22
  2880   001A16                     
  2881                           ;mcc_generated_files/i2c_master.c: 465:     I2C_MasterEnableRestart();
  2882   001A16  EC2D  F00D         	call	_I2C_MasterEnableRestart	;wreg free
  2883   001A1A                     
  2884                           ;mcc_generated_files/i2c_master.c: 466:     return I2C_SEND_ADR_READ;
  2885   001A1A  0E01               	movlw	1
  2886   001A1C  0012               	return		;funcret
  2887   001A1E                     __end_of_I2C_DO_SEND_RESTART:
  2888                           	callstack 0
  2889                           
  2890 ;; *************** function _I2C_DO_SEND_RESTART_WRITE *****************
  2891 ;; Defined at:
  2892 ;;		line 456 in file "mcc_generated_files/i2c_master.c"
  2893 ;; Parameters:    Size  Location     Type
  2894 ;;		None
  2895 ;; Auto vars:     Size  Location     Type
  2896 ;;		None
  2897 ;; Return value:  Size  Location     Type
  2898 ;;                  1    wreg      enum E3115
  2899 ;; Registers used:
  2900 ;;		wreg, cstack
  2901 ;; Tracked objects:
  2902 ;;		On entry : 0/0
  2903 ;;		On exit  : 0/0
  2904 ;;		Unchanged: 0/0
  2905 ;; Data sizes:     COMRAM   BANK0   BANK1   BANK2   BANK3   BANK4   BANK5   BANK6   BANK7   BANK8   BANK9  BANK10  BANK1
      +1  BANK12  BANK13  BANK14  BANK15
  2906 ;;      Params:         0       0       0       0       0       0       0       0       0       0       0       0       
      +0       0       0       0       0
  2907 ;;      Locals:         0       0       0       0       0       0       0       0       0       0       0       0       
      +0       0       0       0       0
  2908 ;;      Temps:          0       0       0       0       0       0       0       0       0       0       0       0       
      +0       0       0       0       0
  2909 ;;      Totals:         0       0       0       0       0       0       0       0       0       0       0       0       
      +0       0       0       0       0
  2910 ;;Total ram usage:        0 bytes
  2911 ;; Hardware stack levels used: 1
  2912 ;; Hardware stack levels required when called: 1
  2913 ;; This function calls:
  2914 ;;		_I2C_MasterEnableRestart
  2915 ;; This function is called by:
  2916 ;;		_I2C_DO_TX
  2917 ;;		_I2C_MasterFsm
  2918 ;; This function uses a non-reentrant model
  2919 ;;
  2920                           
  2921                           	psect	text34
  2922   001A1E                     __ptext34:
  2923                           	callstack 0
  2924   001A1E                     _I2C_DO_SEND_RESTART_WRITE:
  2925                           	callstack 22
  2926   001A1E                     
  2927                           ;mcc_generated_files/i2c_master.c: 458:     I2C_MasterEnableRestart();
  2928   001A1E  EC2D  F00D         	call	_I2C_MasterEnableRestart	;wreg free
  2929   001A22                     
  2930                           ;mcc_generated_files/i2c_master.c: 459:     return I2C_SEND_ADR_WRITE;
  2931   001A22  0E02               	movlw	2
  2932   001A24  0012               	return		;funcret
  2933   001A26                     __end_of_I2C_DO_SEND_RESTART_WRITE:
  2934                           	callstack 0
  2935                           
  2936 ;; *************** function _I2C_DO_SEND_RESTART_READ *****************
  2937 ;; Defined at:
  2938 ;;		line 450 in file "mcc_generated_files/i2c_master.c"
  2939 ;; Parameters:    Size  Location     Type
  2940 ;;		None
  2941 ;; Auto vars:     Size  Location     Type
  2942 ;;		None
  2943 ;; Return value:  Size  Location     Type
  2944 ;;                  1    wreg      enum E3115
  2945 ;; Registers used:
  2946 ;;		wreg, cstack
  2947 ;; Tracked objects:
  2948 ;;		On entry : 0/0
  2949 ;;		On exit  : 0/0
  2950 ;;		Unchanged: 0/0
  2951 ;; Data sizes:     COMRAM   BANK0   BANK1   BANK2   BANK3   BANK4   BANK5   BANK6   BANK7   BANK8   BANK9  BANK10  BANK1
      +1  BANK12  BANK13  BANK14  BANK15
  2952 ;;      Params:         0       0       0       0       0       0       0       0       0       0       0       0       
      +0       0       0       0       0
  2953 ;;      Locals:         0       0       0       0       0       0       0       0       0       0       0       0       
      +0       0       0       0       0
  2954 ;;      Temps:          0       0       0       0       0       0       0       0       0       0       0       0       
      +0       0       0       0       0
  2955 ;;      Totals:         0       0       0       0       0       0       0       0       0       0       0       0       
      +0       0       0       0       0
  2956 ;;Total ram usage:        0 bytes
  2957 ;; Hardware stack levels used: 1
  2958 ;; Hardware stack levels required when called: 1
  2959 ;; This function calls:
  2960 ;;		_I2C_MasterEnableRestart
  2961 ;; This function is called by:
  2962 ;;		_I2C_DO_TX
  2963 ;;		_I2C_MasterFsm
  2964 ;; This function uses a non-reentrant model
  2965 ;;
  2966                           
  2967                           	psect	text35
  2968   001A26                     __ptext35:
  2969                           	callstack 0
  2970   001A26                     _I2C_DO_SEND_RESTART_READ:
  2971                           	callstack 22
  2972   001A26                     
  2973                           ;mcc_generated_files/i2c_master.c: 452:     I2C_MasterEnableRestart();
  2974   001A26  EC2D  F00D         	call	_I2C_MasterEnableRestart	;wreg free
  2975   001A2A                     
  2976                           ;mcc_generated_files/i2c_master.c: 453:     return I2C_SEND_ADR_READ;
  2977   001A2A  0E01               	movlw	1
  2978   001A2C  0012               	return		;funcret
  2979   001A2E                     __end_of_I2C_DO_SEND_RESTART_READ:
  2980                           	callstack 0
  2981                           
  2982 ;; *************** function _I2C_DO_RCEN *****************
  2983 ;; Defined at:
  2984 ;;		line 402 in file "mcc_generated_files/i2c_master.c"
  2985 ;; Parameters:    Size  Location     Type
  2986 ;;		None
  2987 ;; Auto vars:     Size  Location     Type
  2988 ;;		None
  2989 ;; Return value:  Size  Location     Type
  2990 ;;                  1    wreg      enum E3115
  2991 ;; Registers used:
  2992 ;;		wreg, cstack
  2993 ;; Tracked objects:
  2994 ;;		On entry : 0/0
  2995 ;;		On exit  : 0/0
  2996 ;;		Unchanged: 0/0
  2997 ;; Data sizes:     COMRAM   BANK0   BANK1   BANK2   BANK3   BANK4   BANK5   BANK6   BANK7   BANK8   BANK9  BANK10  BANK1
      +1  BANK12  BANK13  BANK14  BANK15
  2998 ;;      Params:         0       0       0       0       0       0       0       0       0       0       0       0       
      +0       0       0       0       0
  2999 ;;      Locals:         0       0       0       0       0       0       0       0       0       0       0       0       
      +0       0       0       0       0
  3000 ;;      Temps:          0       0       0       0       0       0       0       0       0       0       0       0       
      +0       0       0       0       0
  3001 ;;      Totals:         0       0       0       0       0       0       0       0       0       0       0       0       
      +0       0       0       0       0
  3002 ;;Total ram usage:        0 bytes
  3003 ;; Hardware stack levels used: 1
  3004 ;; Hardware stack levels required when called: 1
  3005 ;; This function calls:
  3006 ;;		_I2C_MasterStartRx
  3007 ;; This function is called by:
  3008 ;;		_I2C_MasterFsm
  3009 ;; This function uses a non-reentrant model
  3010 ;;
  3011                           
  3012                           	psect	text36
  3013   0019DA                     __ptext36:
  3014                           	callstack 0
  3015   0019DA                     _I2C_DO_RCEN:
  3016                           	callstack 23
  3017   0019DA                     
  3018                           ;mcc_generated_files/i2c_master.c: 404:     I2C_Status.addressNackCheck = 0;
  3019   0019DA  9024               	bcf	(_I2C_Status+35)^0,0,c
  3020   0019DC                     
  3021                           ;mcc_generated_files/i2c_master.c: 405:     I2C_MasterStartRx();
  3022   0019DC  EC25  F00D         	call	_I2C_MasterStartRx	;wreg free
  3023   0019E0                     
  3024                           ;mcc_generated_files/i2c_master.c: 406:     return I2C_RX;
  3025   0019E0  0E04               	movlw	4
  3026   0019E2  0012               	return		;funcret
  3027   0019E4                     __end_of_I2C_DO_RCEN:
  3028                           	callstack 0
  3029                           
  3030 ;; *************** function _I2C_DO_RX *****************
  3031 ;; Defined at:
  3032 ;;		line 378 in file "mcc_generated_files/i2c_master.c"
  3033 ;; Parameters:    Size  Location     Type
  3034 ;;		None
  3035 ;; Auto vars:     Size  Location     Type
  3036 ;;		None
  3037 ;; Return value:  Size  Location     Type
  3038 ;;                  1    wreg      enum E3115
  3039 ;; Registers used:
  3040 ;;		wreg, fsr2l, fsr2h, status,2, status,0, pcl, pclath, pclatu, tosl, prodl, prodh, cstack
  3041 ;; Tracked objects:
  3042 ;;		On entry : 0/0
  3043 ;;		On exit  : 0/0
  3044 ;;		Unchanged: 0/0
  3045 ;; Data sizes:     COMRAM   BANK0   BANK1   BANK2   BANK3   BANK4   BANK5   BANK6   BANK7   BANK8   BANK9  BANK10  BANK1
      +1  BANK12  BANK13  BANK14  BANK15
  3046 ;;      Params:         0       0       0       0       0       0       0       0       0       0       0       0       
      +0       0       0       0       0
  3047 ;;      Locals:         0       0       0       0       0       0       0       0       0       0       0       0       
      +0       0       0       0       0
  3048 ;;      Temps:          2       0       0       0       0       0       0       0       0       0       0       0       
      +0       0       0       0       0
  3049 ;;      Totals:         2       0       0       0       0       0       0       0       0       0       0       0       
      +0       0       0       0       0
  3050 ;;Total ram usage:        2 bytes
  3051 ;; Hardware stack levels used: 1
  3052 ;; Hardware stack levels required when called: 3
  3053 ;; This function calls:
  3054 ;;		NULL
  3055 ;;		_I2C_CallbackReturnReset
  3056 ;;		_I2C_CallbackReturnStop
  3057 ;;		_I2C_DO_RX_NACK_RESTART
  3058 ;;		_I2C_DO_RX_NACK_STOP
  3059 ;;		_I2C_MasterGetRxData
  3060 ;;		_I2C_MasterSendAck
  3061 ;;		_rd1RegCompleteHandler
  3062 ;;		_rd2RegCompleteHandler
  3063 ;;		_rdBlkRegCompleteHandler
  3064 ;;		_wr1RegCompleteHandler
  3065 ;;		_wr2RegCompleteHandler
  3066 ;; This function is called by:
  3067 ;;		_I2C_MasterFsm
  3068 ;; This function uses a non-reentrant model
  3069 ;;
  3070                           
  3071                           	psect	text37
  3072   0010F0                     __ptext37:
  3073                           	callstack 0
  3074   0010F0                     _I2C_DO_RX:
  3075                           	callstack 21
  3076   0010F0                     
  3077                           ;mcc_generated_files/i2c_master.c: 380:     *I2C_Status.data_ptr++ = I2C_MasterGetRxData
      +                          ();
  3078   0010F0  EC23  F00D         	call	_I2C_MasterGetRxData	;wreg free
  3079   0010F4  C01E  FFD9         	movff	_I2C_Status+29,fsr2l
  3080   0010F8  C01F  FFDA         	movff	_I2C_Status+30,fsr2h
  3081   0010FC  6EDF               	movwf	indf2,c
  3082   0010FE  4A1E               	infsnz	(_I2C_Status+29)^0,f,c
  3083   001100  2A1F               	incf	(_I2C_Status+30)^0,f,c
  3084   001102                     
  3085                           ;mcc_generated_files/i2c_master.c: 381:     if(--I2C_Status.data_length)
  3086   001102  0620               	decf	(_I2C_Status+31)^0,f,c
  3087   001104  A0D8               	btfss	status,0,c
  3088   001106  0621               	decf	(_I2C_Status+32)^0,f,c
  3089   001108  5020               	movf	(_I2C_Status+31)^0,w,c
  3090   00110A  1021               	iorwf	(_I2C_Status+32)^0,w,c
  3091   00110C  B4D8               	btfsc	status,2,c
  3092   00110E  EF8B  F008         	goto	u601
  3093   001112  EF8D  F008         	goto	u600
  3094   001116                     u601:
  3095   001116  EF92  F008         	goto	l413
  3096   00111A                     u600:
  3097   00111A                     
  3098                           ;mcc_generated_files/i2c_master.c: 382:     {;mcc_generated_files/i2c_master.c: 383:    
      +                               I2C_MasterSendAck();
  3099   00111A  EC1B  F00D         	call	_I2C_MasterSendAck	;wreg free
  3100   00111E                     
  3101                           ;mcc_generated_files/i2c_master.c: 384:         return I2C_RCEN;
  3102   00111E  0E05               	movlw	5
  3103   001120  EFC9  F008         	goto	l414
  3104   001124                     l413:
  3105                           
  3106                           ;mcc_generated_files/i2c_master.c: 387:     {;mcc_generated_files/i2c_master.c: 388:    
      +                               I2C_Status.bufferFree = 1;
  3107   001124  8624               	bsf	(_I2C_Status+35)^0,3,c
  3108                           
  3109                           ;mcc_generated_files/i2c_master.c: 389:         switch(I2C_Status.callbackTable[I2C_DATA
      +                          _COMPLETE](I2C_Status.callbackPayload[I2C_DATA_COMPLETE]))
  3110   001126  EF9D  F008         	goto	l2400
  3111   00112A                     l2390:
  3112                           
  3113                           ;mcc_generated_files/i2c_master.c: 393:                 return I2C_DO_RX_NACK_RESTART();
  3114   00112A  ECFB  F00C         	call	_I2C_DO_RX_NACK_RESTART	;wreg free
  3115   00112E  EFC9  F008         	goto	l414
  3116   001132                     l2394:
  3117                           
  3118                           ;mcc_generated_files/i2c_master.c: 397:                 return I2C_DO_RX_NACK_STOP();
  3119   001132  ECFF  F00C         	call	_I2C_DO_RX_NACK_STOP	;wreg free
  3120   001136  EFC9  F008         	goto	l414
  3121   00113A                     l2400:
  3122   00113A  C00D  F035         	movff	_I2C_Status+12,I2C_CallbackReturnReset@funPtr
  3123   00113E  C00E  F036         	movff	_I2C_Status+13,I2C_CallbackReturnReset@funPtr+1
  3124   001142  D802               	call	u618
  3125   001144  EFAD  F008         	goto	u619
  3126   001148                     u618:
  3127   001148  0005               	push	
  3128   00114A  6EFA               	movwf	pclath,c
  3129   00114C  5001               	movf	_I2C_Status^0,w,c
  3130   00114E  6EFD               	movwf	tosl,c
  3131   001150  5002               	movf	(_I2C_Status+1)^0,w,c
  3132   001152  6EFE               	movwf	tosh,c
  3133   001154  6AFF               	clrf	tosu,c
  3134   001156  50FA               	movf	pclath,w,c
  3135   001158  0012               	return		;indir
  3136   00115A                     u619:
  3137   00115A  6E37               	movwf	??_I2C_DO_RX^0,c
  3138   00115C  6A38               	clrf	(??_I2C_DO_RX+1)^0,c
  3139                           
  3140                           ; Switch on 2 bytes has been partitioned into a top level switch of size 1, and 1 sub-sw
      +                          itches
  3141                           ; Switch size 1, requested type "simple"
  3142                           ; Number of cases is 1, Range of values is 0 to 0
  3143                           ; switch strategies available:
  3144                           ; Name         Instructions Cycles
  3145                           ; simple_byte            4     3 (average)
  3146                           ;	Chosen strategy is simple_byte
  3147   00115E  5038               	movf	(??_I2C_DO_RX+1)^0,w,c
  3148   001160  0A00               	xorlw	0	; case 0
  3149   001162  B4D8               	btfsc	status,2,c
  3150   001164  EFB6  F008         	goto	l2762
  3151   001168  EF99  F008         	goto	l2394
  3152   00116C                     l2762:
  3153                           
  3154                           ; Switch size 1, requested type "simple"
  3155                           ; Number of cases is 4, Range of values is 1 to 4
  3156                           ; switch strategies available:
  3157                           ; Name         Instructions Cycles
  3158                           ; simple_byte           13     7 (average)
  3159                           ;	Chosen strategy is simple_byte
  3160   00116C  5037               	movf	??_I2C_DO_RX^0,w,c
  3161   00116E  0A01               	xorlw	1	; case 1
  3162   001170  B4D8               	btfsc	status,2,c
  3163   001172  EF99  F008         	goto	l2394
  3164   001176  0A03               	xorlw	3	; case 2
  3165   001178  B4D8               	btfsc	status,2,c
  3166   00117A  EF95  F008         	goto	l2390
  3167   00117E  0A01               	xorlw	1	; case 3
  3168   001180  B4D8               	btfsc	status,2,c
  3169   001182  EF95  F008         	goto	l2390
  3170   001186  0A07               	xorlw	7	; case 4
  3171   001188  B4D8               	btfsc	status,2,c
  3172   00118A  EF99  F008         	goto	l2394
  3173   00118E  EF99  F008         	goto	l2394
  3174   001192                     l414:
  3175   001192  0012               	return		;funcret
  3176   001194                     __end_of_I2C_DO_RX:
  3177                           	callstack 0
  3178                           
  3179 ;; *************** function _I2C_DO_TX *****************
  3180 ;; Defined at:
  3181 ;;		line 354 in file "mcc_generated_files/i2c_master.c"
  3182 ;; Parameters:    Size  Location     Type
  3183 ;;		None
  3184 ;; Auto vars:     Size  Location     Type
  3185 ;;		None
  3186 ;; Return value:  Size  Location     Type
  3187 ;;                  1    wreg      enum E3115
  3188 ;; Registers used:
  3189 ;;		wreg, fsr2l, fsr2h, status,2, status,0, pcl, pclath, pclatu, tosl, prodl, prodh, cstack
  3190 ;; Tracked objects:
  3191 ;;		On entry : 0/0
  3192 ;;		On exit  : 0/0
  3193 ;;		Unchanged: 0/0
  3194 ;; Data sizes:     COMRAM   BANK0   BANK1   BANK2   BANK3   BANK4   BANK5   BANK6   BANK7   BANK8   BANK9  BANK10  BANK1
      +1  BANK12  BANK13  BANK14  BANK15
  3195 ;;      Params:         0       0       0       0       0       0       0       0       0       0       0       0       
      +0       0       0       0       0
  3196 ;;      Locals:         0       0       0       0       0       0       0       0       0       0       0       0       
      +0       0       0       0       0
  3197 ;;      Temps:          2       0       0       0       0       0       0       0       0       0       0       0       
      +0       0       0       0       0
  3198 ;;      Totals:         2       0       0       0       0       0       0       0       0       0       0       0       
      +0       0       0       0       0
  3199 ;;Total ram usage:        2 bytes
  3200 ;; Hardware stack levels used: 1
  3201 ;; Hardware stack levels required when called: 3
  3202 ;; This function calls:
  3203 ;;		NULL
  3204 ;;		_I2C_CallbackReturnReset
  3205 ;;		_I2C_CallbackReturnStop
  3206 ;;		_I2C_DO_SEND_RESTART_READ
  3207 ;;		_I2C_DO_SEND_RESTART_WRITE
  3208 ;;		_I2C_DO_SEND_STOP
  3209 ;;		_I2C_MasterIsNack
  3210 ;;		_I2C_MasterSendTxData
  3211 ;;		_rd1RegCompleteHandler
  3212 ;;		_rd2RegCompleteHandler
  3213 ;;		_rdBlkRegCompleteHandler
  3214 ;;		_wr1RegCompleteHandler
  3215 ;;		_wr2RegCompleteHandler
  3216 ;; This function is called by:
  3217 ;;		_I2C_MasterFsm
  3218 ;; This function uses a non-reentrant model
  3219 ;;
  3220                           
  3221                           	psect	text38
  3222   001032                     __ptext38:
  3223                           	callstack 0
  3224   001032                     _I2C_DO_TX:
  3225                           	callstack 21
  3226   001032                     
  3227                           ;mcc_generated_files/i2c_master.c: 356:     if(I2C_MasterIsNack())
  3228   001032  EC90  F00C         	call	_I2C_MasterIsNack	;wreg free
  3229   001036  0900               	iorlw	0
  3230   001038  B4D8               	btfsc	status,2,c
  3231   00103A  EF21  F008         	goto	u571
  3232   00103E  EF23  F008         	goto	u570
  3233   001042                     u571:
  3234   001042  EF5D  F008         	goto	l397
  3235   001046                     u570:
  3236   001046  EF31  F008         	goto	l2360
  3237   00104A                     l2346:
  3238                           
  3239                           ;mcc_generated_files/i2c_master.c: 361:                 return I2C_DO_SEND_RESTART_READ(
      +                          );
  3240   00104A  EC13  F00D         	call	_I2C_DO_SEND_RESTART_READ	;wreg free
  3241   00104E  EF77  F008         	goto	l400
  3242   001052                     l2350:
  3243                           
  3244                           ;mcc_generated_files/i2c_master.c: 363:                   return I2C_DO_SEND_RESTART_WRI
      +                          TE();
  3245   001052  EC0F  F00D         	call	_I2C_DO_SEND_RESTART_WRITE	;wreg free
  3246   001056  EF77  F008         	goto	l400
  3247   00105A                     l2354:
  3248                           
  3249                           ;mcc_generated_files/i2c_master.c: 367:                 return I2C_DO_SEND_STOP();
  3250   00105A  EC07  F00D         	call	_I2C_DO_SEND_STOP	;wreg free
  3251   00105E  EF77  F008         	goto	l400
  3252   001062                     l2360:
  3253   001062  C013  F035         	movff	_I2C_Status+18,I2C_CallbackReturnReset@funPtr
  3254   001066  C014  F036         	movff	_I2C_Status+19,I2C_CallbackReturnReset@funPtr+1
  3255   00106A  D802               	call	u588
  3256   00106C  EF41  F008         	goto	u589
  3257   001070                     u588:
  3258   001070  0005               	push	
  3259   001072  6EFA               	movwf	pclath,c
  3260   001074  5007               	movf	(_I2C_Status+6)^0,w,c
  3261   001076  6EFD               	movwf	tosl,c
  3262   001078  5008               	movf	(_I2C_Status+7)^0,w,c
  3263   00107A  6EFE               	movwf	tosh,c
  3264   00107C  6AFF               	clrf	tosu,c
  3265   00107E  50FA               	movf	pclath,w,c
  3266   001080  0012               	return		;indir
  3267   001082                     u589:
  3268   001082  6E37               	movwf	??_I2C_DO_TX^0,c
  3269   001084  6A38               	clrf	(??_I2C_DO_TX+1)^0,c
  3270                           
  3271                           ; Switch on 2 bytes has been partitioned into a top level switch of size 1, and 1 sub-sw
      +                          itches
  3272                           ; Switch size 1, requested type "simple"
  3273                           ; Number of cases is 1, Range of values is 0 to 0
  3274                           ; switch strategies available:
  3275                           ; Name         Instructions Cycles
  3276                           ; simple_byte            4     3 (average)
  3277                           ;	Chosen strategy is simple_byte
  3278   001086  5038               	movf	(??_I2C_DO_TX+1)^0,w,c
  3279   001088  0A00               	xorlw	0	; case 0
  3280   00108A  B4D8               	btfsc	status,2,c
  3281   00108C  EF4A  F008         	goto	l2764
  3282   001090  EF2D  F008         	goto	l2354
  3283   001094                     l2764:
  3284                           
  3285                           ; Switch size 1, requested type "simple"
  3286                           ; Number of cases is 4, Range of values is 1 to 4
  3287                           ; switch strategies available:
  3288                           ; Name         Instructions Cycles
  3289                           ; simple_byte           13     7 (average)
  3290                           ;	Chosen strategy is simple_byte
  3291   001094  5037               	movf	??_I2C_DO_TX^0,w,c
  3292   001096  0A01               	xorlw	1	; case 1
  3293   001098  B4D8               	btfsc	status,2,c
  3294   00109A  EF2D  F008         	goto	l2354
  3295   00109E  0A03               	xorlw	3	; case 2
  3296   0010A0  B4D8               	btfsc	status,2,c
  3297   0010A2  EF25  F008         	goto	l2346
  3298   0010A6  0A01               	xorlw	1	; case 3
  3299   0010A8  B4D8               	btfsc	status,2,c
  3300   0010AA  EF29  F008         	goto	l2350
  3301   0010AE  0A07               	xorlw	7	; case 4
  3302   0010B0  B4D8               	btfsc	status,2,c
  3303   0010B2  EF2D  F008         	goto	l2354
  3304   0010B6  EF2D  F008         	goto	l2354
  3305   0010BA                     l397:
  3306                           
  3307                           ;mcc_generated_files/i2c_master.c: 371:     {;mcc_generated_files/i2c_master.c: 372:    
      +                               I2C_Status.addressNackCheck = 0;
  3308   0010BA  9024               	bcf	(_I2C_Status+35)^0,0,c
  3309   0010BC                     
  3310                           ;mcc_generated_files/i2c_master.c: 373:         I2C_MasterSendTxData(*I2C_Status.data_pt
      +                          r++);
  3311   0010BC  C01E  FFD9         	movff	_I2C_Status+29,fsr2l
  3312   0010C0  C01F  FFDA         	movff	_I2C_Status+30,fsr2h
  3313   0010C4  4A1E               	infsnz	(_I2C_Status+29)^0,f,c
  3314   0010C6  2A1F               	incf	(_I2C_Status+30)^0,f,c
  3315   0010C8  50DF               	movf	indf2,w,c
  3316   0010CA  EC17  F00D         	call	_I2C_MasterSendTxData
  3317   0010CE                     
  3318                           ;mcc_generated_files/i2c_master.c: 374:         return (--I2C_Status.data_length)?I2C_TX
      +                          :I2C_TX_EMPTY;
  3319   0010CE  0620               	decf	(_I2C_Status+31)^0,f,c
  3320   0010D0  A0D8               	btfss	status,0,c
  3321   0010D2  0621               	decf	(_I2C_Status+32)^0,f,c
  3322   0010D4  5020               	movf	(_I2C_Status+31)^0,w,c
  3323   0010D6  1021               	iorwf	(_I2C_Status+32)^0,w,c
  3324   0010D8  A4D8               	btfss	status,2,c
  3325   0010DA  EF71  F008         	goto	u591
  3326   0010DE  EF73  F008         	goto	u590
  3327   0010E2                     u591:
  3328   0010E2  EF76  F008         	goto	l2368
  3329   0010E6                     u590:
  3330   0010E6  0E06               	movlw	6
  3331   0010E8  EF77  F008         	goto	l400
  3332   0010EC                     l2368:
  3333   0010EC  0E03               	movlw	3
  3334   0010EE                     l400:
  3335   0010EE  0012               	return		;funcret
  3336   0010F0                     __end_of_I2C_DO_TX:
  3337                           	callstack 0
  3338                           
  3339 ;; *************** function _I2C_DO_SEND_ADR_WRITE *****************
  3340 ;; Defined at:
  3341 ;;		line 347 in file "mcc_generated_files/i2c_master.c"
  3342 ;; Parameters:    Size  Location     Type
  3343 ;;		None
  3344 ;; Auto vars:     Size  Location     Type
  3345 ;;		None
  3346 ;; Return value:  Size  Location     Type
  3347 ;;                  1    wreg      enum E3115
  3348 ;; Registers used:
  3349 ;;		wreg, status,2, status,0, cstack
  3350 ;; Tracked objects:
  3351 ;;		On entry : 0/0
  3352 ;;		On exit  : 0/0
  3353 ;;		Unchanged: 0/0
  3354 ;; Data sizes:     COMRAM   BANK0   BANK1   BANK2   BANK3   BANK4   BANK5   BANK6   BANK7   BANK8   BANK9  BANK10  BANK1
      +1  BANK12  BANK13  BANK14  BANK15
  3355 ;;      Params:         0       0       0       0       0       0       0       0       0       0       0       0       
      +0       0       0       0       0
  3356 ;;      Locals:         0       0       0       0       0       0       0       0       0       0       0       0       
      +0       0       0       0       0
  3357 ;;      Temps:          0       0       0       0       0       0       0       0       0       0       0       0       
      +0       0       0       0       0
  3358 ;;      Totals:         0       0       0       0       0       0       0       0       0       0       0       0       
      +0       0       0       0       0
  3359 ;;Total ram usage:        0 bytes
  3360 ;; Hardware stack levels used: 1
  3361 ;; Hardware stack levels required when called: 1
  3362 ;; This function calls:
  3363 ;;		_I2C_MasterSendTxData
  3364 ;; This function is called by:
  3365 ;;		_I2C_MasterFsm
  3366 ;; This function uses a non-reentrant model
  3367 ;;
  3368                           
  3369                           	psect	text39
  3370   00198C                     __ptext39:
  3371                           	callstack 0
  3372   00198C                     _I2C_DO_SEND_ADR_WRITE:
  3373                           	callstack 23
  3374   00198C                     
  3375                           ;mcc_generated_files/i2c_master.c: 349:     I2C_Status.addressNackCheck = 1;
  3376   00198C  8024               	bsf	(_I2C_Status+35)^0,0,c
  3377   00198E                     
  3378                           ;mcc_generated_files/i2c_master.c: 350:     I2C_MasterSendTxData((uint8_t) (I2C_Status.a
      +                          ddress << 1));
  3379   00198E  501D               	movf	(_I2C_Status+28)^0,w,c
  3380   001990  241D               	addwf	(_I2C_Status+28)^0,w,c
  3381   001992  EC17  F00D         	call	_I2C_MasterSendTxData
  3382   001996                     
  3383                           ;mcc_generated_files/i2c_master.c: 351:     return I2C_TX;
  3384   001996  0E03               	movlw	3
  3385   001998  0012               	return		;funcret
  3386   00199A                     __end_of_I2C_DO_SEND_ADR_WRITE:
  3387                           	callstack 0
  3388                           
  3389 ;; *************** function _I2C_DO_SEND_ADR_READ *****************
  3390 ;; Defined at:
  3391 ;;		line 340 in file "mcc_generated_files/i2c_master.c"
  3392 ;; Parameters:    Size  Location     Type
  3393 ;;		None
  3394 ;; Auto vars:     Size  Location     Type
  3395 ;;		None
  3396 ;; Return value:  Size  Location     Type
  3397 ;;                  1    wreg      enum E3115
  3398 ;; Registers used:
  3399 ;;		wreg, status,0, cstack
  3400 ;; Tracked objects:
  3401 ;;		On entry : 0/0
  3402 ;;		On exit  : 0/0
  3403 ;;		Unchanged: 0/0
  3404 ;; Data sizes:     COMRAM   BANK0   BANK1   BANK2   BANK3   BANK4   BANK5   BANK6   BANK7   BANK8   BANK9  BANK10  BANK1
      +1  BANK12  BANK13  BANK14  BANK15
  3405 ;;      Params:         0       0       0       0       0       0       0       0       0       0       0       0       
      +0       0       0       0       0
  3406 ;;      Locals:         0       0       0       0       0       0       0       0       0       0       0       0       
      +0       0       0       0       0
  3407 ;;      Temps:          0       0       0       0       0       0       0       0       0       0       0       0       
      +0       0       0       0       0
  3408 ;;      Totals:         0       0       0       0       0       0       0       0       0       0       0       0       
      +0       0       0       0       0
  3409 ;;Total ram usage:        0 bytes
  3410 ;; Hardware stack levels used: 1
  3411 ;; Hardware stack levels required when called: 1
  3412 ;; This function calls:
  3413 ;;		_I2C_MasterSendTxData
  3414 ;; This function is called by:
  3415 ;;		_I2C_MasterFsm
  3416 ;; This function uses a non-reentrant model
  3417 ;;
  3418                           
  3419                           	psect	text40
  3420   00199A                     __ptext40:
  3421                           	callstack 0
  3422   00199A                     _I2C_DO_SEND_ADR_READ:
  3423                           	callstack 23
  3424   00199A                     
  3425                           ;mcc_generated_files/i2c_master.c: 342:     I2C_Status.addressNackCheck = 1;
  3426   00199A  8024               	bsf	(_I2C_Status+35)^0,0,c
  3427   00199C                     
  3428                           ;mcc_generated_files/i2c_master.c: 343:     I2C_MasterSendTxData((uint8_t) (I2C_Status.a
      +                          ddress << 1 | 1));
  3429   00199C  80D8               	bsf	status,0,c
  3430   00199E  341D               	rlcf	(_I2C_Status+28)^0,w,c
  3431   0019A0  EC17  F00D         	call	_I2C_MasterSendTxData
  3432   0019A4                     
  3433                           ;mcc_generated_files/i2c_master.c: 344:     return I2C_RCEN;
  3434   0019A4  0E05               	movlw	5
  3435   0019A6  0012               	return		;funcret
  3436   0019A8                     __end_of_I2C_DO_SEND_ADR_READ:
  3437                           	callstack 0
  3438                           
  3439 ;; *************** function _I2C_DO_IDLE *****************
  3440 ;; Defined at:
  3441 ;;		line 333 in file "mcc_generated_files/i2c_master.c"
  3442 ;; Parameters:    Size  Location     Type
  3443 ;;		None
  3444 ;; Auto vars:     Size  Location     Type
  3445 ;;		None
  3446 ;; Return value:  Size  Location     Type
  3447 ;;                  1    wreg      enum E3115
  3448 ;; Registers used:
  3449 ;;		wreg, status,2
  3450 ;; Tracked objects:
  3451 ;;		On entry : 0/0
  3452 ;;		On exit  : 0/0
  3453 ;;		Unchanged: 0/0
  3454 ;; Data sizes:     COMRAM   BANK0   BANK1   BANK2   BANK3   BANK4   BANK5   BANK6   BANK7   BANK8   BANK9  BANK10  BANK1
      +1  BANK12  BANK13  BANK14  BANK15
  3455 ;;      Params:         0       0       0       0       0       0       0       0       0       0       0       0       
      +0       0       0       0       0
  3456 ;;      Locals:         0       0       0       0       0       0       0       0       0       0       0       0       
      +0       0       0       0       0
  3457 ;;      Temps:          0       0       0       0       0       0       0       0       0       0       0       0       
      +0       0       0       0       0
  3458 ;;      Totals:         0       0       0       0       0       0       0       0       0       0       0       0       
      +0       0       0       0       0
  3459 ;;Total ram usage:        0 bytes
  3460 ;; Hardware stack levels used: 1
  3461 ;; This function calls:
  3462 ;;		Nothing
  3463 ;; This function is called by:
  3464 ;;		_I2C_MasterFsm
  3465 ;; This function uses a non-reentrant model
  3466 ;;
  3467                           
  3468                           	psect	text41
  3469   0019E4                     __ptext41:
  3470                           	callstack 0
  3471   0019E4                     _I2C_DO_IDLE:
  3472                           	callstack 24
  3473   0019E4                     
  3474                           ;mcc_generated_files/i2c_master.c: 335:     I2C_Status.busy = 0;
  3475   0019E4  9224               	bcf	(_I2C_Status+35)^0,1,c
  3476   0019E6                     
  3477                           ;mcc_generated_files/i2c_master.c: 336:     I2C_Status.error = I2C_NOERR;
  3478   0019E6  0E00               	movlw	0
  3479   0019E8  6E23               	movwf	(_I2C_Status+34)^0,c
  3480   0019EA                     
  3481                           ;mcc_generated_files/i2c_master.c: 337:     return I2C_RESET;
  3482   0019EA  0E0E               	movlw	14
  3483   0019EC  0012               	return		;funcret
  3484   0019EE                     __end_of_I2C_DO_IDLE:
  3485                           	callstack 0
  3486                           
  3487 ;; *************** function _I2C_DO_TX_EMPTY *****************
  3488 ;; Defined at:
  3489 ;;		line 409 in file "mcc_generated_files/i2c_master.c"
  3490 ;; Parameters:    Size  Location     Type
  3491 ;;		None
  3492 ;; Auto vars:     Size  Location     Type
  3493 ;;		None
  3494 ;; Return value:  Size  Location     Type
  3495 ;;                  1    wreg      enum E3115
  3496 ;; Registers used:
  3497 ;;		wreg, fsr2l, fsr2h, status,2, status,0, pcl, pclath, pclatu, tosl, prodl, prodh, cstack
  3498 ;; Tracked objects:
  3499 ;;		On entry : 0/0
  3500 ;;		On exit  : 0/0
  3501 ;;		Unchanged: 0/0
  3502 ;; Data sizes:     COMRAM   BANK0   BANK1   BANK2   BANK3   BANK4   BANK5   BANK6   BANK7   BANK8   BANK9  BANK10  BANK1
      +1  BANK12  BANK13  BANK14  BANK15
  3503 ;;      Params:         0       0       0       0       0       0       0       0       0       0       0       0       
      +0       0       0       0       0
  3504 ;;      Locals:         0       0       0       0       0       0       0       0       0       0       0       0       
      +0       0       0       0       0
  3505 ;;      Temps:          2       0       0       0       0       0       0       0       0       0       0       0       
      +0       0       0       0       0
  3506 ;;      Totals:         2       0       0       0       0       0       0       0       0       0       0       0       
      +0       0       0       0       0
  3507 ;;Total ram usage:        2 bytes
  3508 ;; Hardware stack levels used: 1
  3509 ;; Hardware stack levels required when called: 3
  3510 ;; This function calls:
  3511 ;;		NULL
  3512 ;;		_I2C_CallbackReturnReset
  3513 ;;		_I2C_CallbackReturnStop
  3514 ;;		_I2C_DO_SEND_RESTART
  3515 ;;		_I2C_DO_SEND_STOP
  3516 ;;		_I2C_MasterSetIrq
  3517 ;;		_rd1RegCompleteHandler
  3518 ;;		_rd2RegCompleteHandler
  3519 ;;		_rdBlkRegCompleteHandler
  3520 ;;		_wr1RegCompleteHandler
  3521 ;;		_wr2RegCompleteHandler
  3522 ;; This function is called by:
  3523 ;;		_I2C_MasterFsm
  3524 ;; This function uses a non-reentrant model
  3525 ;;
  3526                           
  3527                           	psect	text42
  3528   00131C                     __ptext42:
  3529                           	callstack 0
  3530   00131C                     _I2C_DO_TX_EMPTY:
  3531                           	callstack 21
  3532   00131C                     
  3533                           ;mcc_generated_files/i2c_master.c: 411:     I2C_Status.bufferFree = 1;
  3534   00131C  8624               	bsf	(_I2C_Status+35)^0,3,c
  3535                           
  3536                           ;mcc_generated_files/i2c_master.c: 412:     switch(I2C_Status.callbackTable[I2C_DATA_COM
      +                          PLETE](I2C_Status.callbackPayload[I2C_DATA_COMPLETE]))
  3537   00131E  EF9E  F009         	goto	l2424
  3538   001322                     l2408:
  3539                           
  3540                           ;mcc_generated_files/i2c_master.c: 416:             return I2C_DO_SEND_RESTART();
  3541   001322  EC0B  F00D         	call	_I2C_DO_SEND_RESTART	;wreg free
  3542   001326  EFCA  F009         	goto	l431
  3543   00132A                     l2412:
  3544                           
  3545                           ;mcc_generated_files/i2c_master.c: 418:             I2C_MasterSetIrq();
  3546   00132A  EC21  F00D         	call	_I2C_MasterSetIrq	;wreg free
  3547   00132E                     
  3548                           ;mcc_generated_files/i2c_master.c: 419:             return I2C_TX;
  3549   00132E  0E03               	movlw	3
  3550   001330  EFCA  F009         	goto	l431
  3551   001334                     l2418:
  3552                           
  3553                           ;mcc_generated_files/i2c_master.c: 422:             return I2C_DO_SEND_STOP();
  3554   001334  EC07  F00D         	call	_I2C_DO_SEND_STOP	;wreg free
  3555   001338  EFCA  F009         	goto	l431
  3556   00133C                     l2424:
  3557   00133C  C00D  F035         	movff	_I2C_Status+12,I2C_CallbackReturnReset@funPtr
  3558   001340  C00E  F036         	movff	_I2C_Status+13,I2C_CallbackReturnReset@funPtr+1
  3559   001344  D802               	call	u628
  3560   001346  EFAE  F009         	goto	u629
  3561   00134A                     u628:
  3562   00134A  0005               	push	
  3563   00134C  6EFA               	movwf	pclath,c
  3564   00134E  5001               	movf	_I2C_Status^0,w,c
  3565   001350  6EFD               	movwf	tosl,c
  3566   001352  5002               	movf	(_I2C_Status+1)^0,w,c
  3567   001354  6EFE               	movwf	tosh,c
  3568   001356  6AFF               	clrf	tosu,c
  3569   001358  50FA               	movf	pclath,w,c
  3570   00135A  0012               	return		;indir
  3571   00135C                     u629:
  3572   00135C  6E37               	movwf	??_I2C_DO_TX_EMPTY^0,c
  3573   00135E  6A38               	clrf	(??_I2C_DO_TX_EMPTY+1)^0,c
  3574                           
  3575                           ; Switch on 2 bytes has been partitioned into a top level switch of size 1, and 1 sub-sw
      +                          itches
  3576                           ; Switch size 1, requested type "simple"
  3577                           ; Number of cases is 1, Range of values is 0 to 0
  3578                           ; switch strategies available:
  3579                           ; Name         Instructions Cycles
  3580                           ; simple_byte            4     3 (average)
  3581                           ;	Chosen strategy is simple_byte
  3582   001360  5038               	movf	(??_I2C_DO_TX_EMPTY+1)^0,w,c
  3583   001362  0A00               	xorlw	0	; case 0
  3584   001364  B4D8               	btfsc	status,2,c
  3585   001366  EFB7  F009         	goto	l2766
  3586   00136A  EF9A  F009         	goto	l2418
  3587   00136E                     l2766:
  3588                           
  3589                           ; Switch size 1, requested type "simple"
  3590                           ; Number of cases is 4, Range of values is 1 to 4
  3591                           ; switch strategies available:
  3592                           ; Name         Instructions Cycles
  3593                           ; simple_byte           13     7 (average)
  3594                           ;	Chosen strategy is simple_byte
  3595   00136E  5037               	movf	??_I2C_DO_TX_EMPTY^0,w,c
  3596   001370  0A01               	xorlw	1	; case 1
  3597   001372  B4D8               	btfsc	status,2,c
  3598   001374  EF9A  F009         	goto	l2418
  3599   001378  0A03               	xorlw	3	; case 2
  3600   00137A  B4D8               	btfsc	status,2,c
  3601   00137C  EF91  F009         	goto	l2408
  3602   001380  0A01               	xorlw	1	; case 3
  3603   001382  B4D8               	btfsc	status,2,c
  3604   001384  EF91  F009         	goto	l2408
  3605   001388  0A07               	xorlw	7	; case 4
  3606   00138A  B4D8               	btfsc	status,2,c
  3607   00138C  EF95  F009         	goto	l2412
  3608   001390  EF9A  F009         	goto	l2418
  3609   001394                     l431:
  3610   001394  0012               	return		;funcret
  3611   001396                     __end_of_I2C_DO_TX_EMPTY:
  3612                           	callstack 0
  3613                           
  3614 ;; *************** function _I2C_MasterSetIrq *****************
  3615 ;; Defined at:
  3616 ;;		line 645 in file "mcc_generated_files/i2c_master.c"
  3617 ;; Parameters:    Size  Location     Type
  3618 ;;		None
  3619 ;; Auto vars:     Size  Location     Type
  3620 ;;		None
  3621 ;; Return value:  Size  Location     Type
  3622 ;;                  1    wreg      void 
  3623 ;; Registers used:
  3624 ;;		None
  3625 ;; Tracked objects:
  3626 ;;		On entry : 0/0
  3627 ;;		On exit  : 0/0
  3628 ;;		Unchanged: 0/0
  3629 ;; Data sizes:     COMRAM   BANK0   BANK1   BANK2   BANK3   BANK4   BANK5   BANK6   BANK7   BANK8   BANK9  BANK10  BANK1
      +1  BANK12  BANK13  BANK14  BANK15
  3630 ;;      Params:         0       0       0       0       0       0       0       0       0       0       0       0       
      +0       0       0       0       0
  3631 ;;      Locals:         0       0       0       0       0       0       0       0       0       0       0       0       
      +0       0       0       0       0
  3632 ;;      Temps:          0       0       0       0       0       0       0       0       0       0       0       0       
      +0       0       0       0       0
  3633 ;;      Totals:         0       0       0       0       0       0       0       0       0       0       0       0       
      +0       0       0       0       0
  3634 ;;Total ram usage:        0 bytes
  3635 ;; Hardware stack levels used: 1
  3636 ;; This function calls:
  3637 ;;		Nothing
  3638 ;; This function is called by:
  3639 ;;		_I2C_DO_TX_EMPTY
  3640 ;; This function uses a non-reentrant model
  3641 ;;
  3642                           
  3643                           	psect	text43
  3644   001A42                     __ptext43:
  3645                           	callstack 0
  3646   001A42                     _I2C_MasterSetIrq:
  3647                           	callstack 23
  3648   001A42                     
  3649                           ;mcc_generated_files/i2c_master.c: 647:     PIR1bits.SSPIF = 1;
  3650   001A42  869E               	bsf	158,3,c	;volatile
  3651   001A44  0012               	return		;funcret
  3652   001A46                     __end_of_I2C_MasterSetIrq:
  3653                           	callstack 0
  3654                           
  3655 ;; *************** function _I2C_MasterIsNack *****************
  3656 ;; Defined at:
  3657 ;;		line 598 in file "mcc_generated_files/i2c_master.c"
  3658 ;; Parameters:    Size  Location     Type
  3659 ;;		None
  3660 ;; Auto vars:     Size  Location     Type
  3661 ;;		None
  3662 ;; Return value:  Size  Location     Type
  3663 ;;                  1    wreg      _Bool 
  3664 ;; Registers used:
  3665 ;;		wreg
  3666 ;; Tracked objects:
  3667 ;;		On entry : 0/0
  3668 ;;		On exit  : 0/0
  3669 ;;		Unchanged: 0/0
  3670 ;; Data sizes:     COMRAM   BANK0   BANK1   BANK2   BANK3   BANK4   BANK5   BANK6   BANK7   BANK8   BANK9  BANK10  BANK1
      +1  BANK12  BANK13  BANK14  BANK15
  3671 ;;      Params:         0       0       0       0       0       0       0       0       0       0       0       0       
      +0       0       0       0       0
  3672 ;;      Locals:         0       0       0       0       0       0       0       0       0       0       0       0       
      +0       0       0       0       0
  3673 ;;      Temps:          0       0       0       0       0       0       0       0       0       0       0       0       
      +0       0       0       0       0
  3674 ;;      Totals:         0       0       0       0       0       0       0       0       0       0       0       0       
      +0       0       0       0       0
  3675 ;;Total ram usage:        0 bytes
  3676 ;; Hardware stack levels used: 1
  3677 ;; This function calls:
  3678 ;;		Nothing
  3679 ;; This function is called by:
  3680 ;;		_I2C_MasterFsm
  3681 ;;		_I2C_DO_TX
  3682 ;; This function uses a non-reentrant model
  3683 ;;
  3684                           
  3685                           	psect	text44
  3686   001920                     __ptext44:
  3687                           	callstack 0
  3688   001920                     _I2C_MasterIsNack:
  3689                           	callstack 24
  3690   001920                     
  3691                           ;mcc_generated_files/i2c_master.c: 600:     return SSPCON2bits.ACKSTAT;
  3692   001920  BCC5               	btfsc	197,6,c	;volatile
  3693   001922  EF95  F00C         	goto	u31
  3694   001926  EF98  F00C         	goto	u30
  3695   00192A                     u31:
  3696   00192A  0E01               	movlw	1
  3697   00192C  EF99  F00C         	goto	u36
  3698   001930                     u30:
  3699   001930  0E00               	movlw	0
  3700   001932                     u36:
  3701   001932  0012               	return		;funcret
  3702   001934                     __end_of_I2C_MasterIsNack:
  3703                           	callstack 0
  3704                           
  3705 ;; *************** function _I2C_MasterSendTxData *****************
  3706 ;; Defined at:
  3707 ;;		line 568 in file "mcc_generated_files/i2c_master.c"
  3708 ;; Parameters:    Size  Location     Type
  3709 ;;  data            1    wreg     unsigned char 
  3710 ;; Auto vars:     Size  Location     Type
  3711 ;;  data            1    0[COMRAM] unsigned char 
  3712 ;; Return value:  Size  Location     Type
  3713 ;;                  1    wreg      void 
  3714 ;; Registers used:
  3715 ;;		wreg
  3716 ;; Tracked objects:
  3717 ;;		On entry : 0/0
  3718 ;;		On exit  : 0/0
  3719 ;;		Unchanged: 0/0
  3720 ;; Data sizes:     COMRAM   BANK0   BANK1   BANK2   BANK3   BANK4   BANK5   BANK6   BANK7   BANK8   BANK9  BANK10  BANK1
      +1  BANK12  BANK13  BANK14  BANK15
  3721 ;;      Params:         0       0       0       0       0       0       0       0       0       0       0       0       
      +0       0       0       0       0
  3722 ;;      Locals:         1       0       0       0       0       0       0       0       0       0       0       0       
      +0       0       0       0       0
  3723 ;;      Temps:          0       0       0       0       0       0       0       0       0       0       0       0       
      +0       0       0       0       0
  3724 ;;      Totals:         1       0       0       0       0       0       0       0       0       0       0       0       
      +0       0       0       0       0
  3725 ;;Total ram usage:        1 bytes
  3726 ;; Hardware stack levels used: 1
  3727 ;; This function calls:
  3728 ;;		Nothing
  3729 ;; This function is called by:
  3730 ;;		_I2C_DO_SEND_ADR_READ
  3731 ;;		_I2C_DO_SEND_ADR_WRITE
  3732 ;;		_I2C_DO_TX
  3733 ;; This function uses a non-reentrant model
  3734 ;;
  3735                           
  3736                           	psect	text45
  3737   001A2E                     __ptext45:
  3738                           	callstack 0
  3739   001A2E                     _I2C_MasterSendTxData:
  3740                           	callstack 23
  3741                           
  3742                           ;incstack = 0
  3743                           ;I2C_MasterSendTxData@data stored from wreg
  3744   001A2E  6E2C               	movwf	I2C_MasterSendTxData@data^0,c
  3745   001A30                     
  3746                           ;mcc_generated_files/i2c_master.c: 568: static __attribute__((inline)) void I2C_MasterSe
      +                          ndTxData(uint8_t data);mcc_generated_files/i2c_master.c: 569: {;mcc_generated_files/i2c_
      +                          master.c: 570:     SSPBUF = data;
  3747   001A30  C02C  FFC9         	movff	I2C_MasterSendTxData@data,4041	;volatile
  3748   001A34  0012               	return		;funcret
  3749   001A36                     __end_of_I2C_MasterSendTxData:
  3750                           	callstack 0
  3751                           
  3752 ;; *************** function _I2C_MasterSendAck *****************
  3753 ;; Defined at:
  3754 ;;		line 603 in file "mcc_generated_files/i2c_master.c"
  3755 ;; Parameters:    Size  Location     Type
  3756 ;;		None
  3757 ;; Auto vars:     Size  Location     Type
  3758 ;;		None
  3759 ;; Return value:  Size  Location     Type
  3760 ;;                  1    wreg      void 
  3761 ;; Registers used:
  3762 ;;		None
  3763 ;; Tracked objects:
  3764 ;;		On entry : 0/0
  3765 ;;		On exit  : 0/0
  3766 ;;		Unchanged: 0/0
  3767 ;; Data sizes:     COMRAM   BANK0   BANK1   BANK2   BANK3   BANK4   BANK5   BANK6   BANK7   BANK8   BANK9  BANK10  BANK1
      +1  BANK12  BANK13  BANK14  BANK15
  3768 ;;      Params:         0       0       0       0       0       0       0       0       0       0       0       0       
      +0       0       0       0       0
  3769 ;;      Locals:         0       0       0       0       0       0       0       0       0       0       0       0       
      +0       0       0       0       0
  3770 ;;      Temps:          0       0       0       0       0       0       0       0       0       0       0       0       
      +0       0       0       0       0
  3771 ;;      Totals:         0       0       0       0       0       0       0       0       0       0       0       0       
      +0       0       0       0       0
  3772 ;;Total ram usage:        0 bytes
  3773 ;; Hardware stack levels used: 1
  3774 ;; This function calls:
  3775 ;;		Nothing
  3776 ;; This function is called by:
  3777 ;;		_I2C_DO_RX
  3778 ;;		_I2C_DO_RX_ACK
  3779 ;; This function uses a non-reentrant model
  3780 ;;
  3781                           
  3782                           	psect	text46
  3783   001A36                     __ptext46:
  3784                           	callstack 0
  3785   001A36                     _I2C_MasterSendAck:
  3786                           	callstack 23
  3787   001A36                     
  3788                           ;mcc_generated_files/i2c_master.c: 605:     SSPCON2bits.ACKDT = 0;
  3789   001A36  9AC5               	bcf	197,5,c	;volatile
  3790                           
  3791                           ;mcc_generated_files/i2c_master.c: 606:     SSPCON2bits.ACKEN = 1;
  3792   001A38  88C5               	bsf	197,4,c	;volatile
  3793   001A3A  0012               	return		;funcret
  3794   001A3C                     __end_of_I2C_MasterSendAck:
  3795                           	callstack 0
  3796                           
  3797 ;; *************** function _I2C_MasterGetRxData *****************
  3798 ;; Defined at:
  3799 ;;		line 563 in file "mcc_generated_files/i2c_master.c"
  3800 ;; Parameters:    Size  Location     Type
  3801 ;;		None
  3802 ;; Auto vars:     Size  Location     Type
  3803 ;;		None
  3804 ;; Return value:  Size  Location     Type
  3805 ;;                  1    wreg      unsigned char 
  3806 ;; Registers used:
  3807 ;;		wreg, status,2
  3808 ;; Tracked objects:
  3809 ;;		On entry : 0/0
  3810 ;;		On exit  : 0/0
  3811 ;;		Unchanged: 0/0
  3812 ;; Data sizes:     COMRAM   BANK0   BANK1   BANK2   BANK3   BANK4   BANK5   BANK6   BANK7   BANK8   BANK9  BANK10  BANK1
      +1  BANK12  BANK13  BANK14  BANK15
  3813 ;;      Params:         0       0       0       0       0       0       0       0       0       0       0       0       
      +0       0       0       0       0
  3814 ;;      Locals:         0       0       0       0       0       0       0       0       0       0       0       0       
      +0       0       0       0       0
  3815 ;;      Temps:          0       0       0       0       0       0       0       0       0       0       0       0       
      +0       0       0       0       0
  3816 ;;      Totals:         0       0       0       0       0       0       0       0       0       0       0       0       
      +0       0       0       0       0
  3817 ;;Total ram usage:        0 bytes
  3818 ;; Hardware stack levels used: 1
  3819 ;; This function calls:
  3820 ;;		Nothing
  3821 ;; This function is called by:
  3822 ;;		_I2C_DO_RX
  3823 ;; This function uses a non-reentrant model
  3824 ;;
  3825                           
  3826                           	psect	text47
  3827   001A46                     __ptext47:
  3828                           	callstack 0
  3829   001A46                     _I2C_MasterGetRxData:
  3830                           	callstack 23
  3831   001A46                     
  3832                           ;mcc_generated_files/i2c_master.c: 565:     return SSPBUF;
  3833   001A46  50C9               	movf	201,w,c	;volatile
  3834   001A48  0012               	return		;funcret
  3835   001A4A                     __end_of_I2C_MasterGetRxData:
  3836                           	callstack 0
  3837                           
  3838 ;; *************** function _I2C_MasterSendNack *****************
  3839 ;; Defined at:
  3840 ;;		line 609 in file "mcc_generated_files/i2c_master.c"
  3841 ;; Parameters:    Size  Location     Type
  3842 ;;		None
  3843 ;; Auto vars:     Size  Location     Type
  3844 ;;		None
  3845 ;; Return value:  Size  Location     Type
  3846 ;;                  1    wreg      void 
  3847 ;; Registers used:
  3848 ;;		None
  3849 ;; Tracked objects:
  3850 ;;		On entry : 0/0
  3851 ;;		On exit  : 0/0
  3852 ;;		Unchanged: 0/0
  3853 ;; Data sizes:     COMRAM   BANK0   BANK1   BANK2   BANK3   BANK4   BANK5   BANK6   BANK7   BANK8   BANK9  BANK10  BANK1
      +1  BANK12  BANK13  BANK14  BANK15
  3854 ;;      Params:         0       0       0       0       0       0       0       0       0       0       0       0       
      +0       0       0       0       0
  3855 ;;      Locals:         0       0       0       0       0       0       0       0       0       0       0       0       
      +0       0       0       0       0
  3856 ;;      Temps:          0       0       0       0       0       0       0       0       0       0       0       0       
      +0       0       0       0       0
  3857 ;;      Totals:         0       0       0       0       0       0       0       0       0       0       0       0       
      +0       0       0       0       0
  3858 ;;Total ram usage:        0 bytes
  3859 ;; Hardware stack levels used: 1
  3860 ;; This function calls:
  3861 ;;		Nothing
  3862 ;; This function is called by:
  3863 ;;		_I2C_DO_RX_NACK_STOP
  3864 ;;		_I2C_DO_RX_NACK_RESTART
  3865 ;; This function uses a non-reentrant model
  3866 ;;
  3867                           
  3868                           	psect	text48
  3869   001A3C                     __ptext48:
  3870                           	callstack 0
  3871   001A3C                     _I2C_MasterSendNack:
  3872                           	callstack 23
  3873   001A3C                     
  3874                           ;mcc_generated_files/i2c_master.c: 611:     SSPCON2bits.ACKDT = 1;
  3875   001A3C  8AC5               	bsf	197,5,c	;volatile
  3876                           
  3877                           ;mcc_generated_files/i2c_master.c: 612:     SSPCON2bits.ACKEN = 1;
  3878   001A3E  88C5               	bsf	197,4,c	;volatile
  3879   001A40  0012               	return		;funcret
  3880   001A42                     __end_of_I2C_MasterSendNack:
  3881                           	callstack 0
  3882                           
  3883 ;; *************** function _I2C_MasterStartRx *****************
  3884 ;; Defined at:
  3885 ;;		line 583 in file "mcc_generated_files/i2c_master.c"
  3886 ;; Parameters:    Size  Location     Type
  3887 ;;		None
  3888 ;; Auto vars:     Size  Location     Type
  3889 ;;		None
  3890 ;; Return value:  Size  Location     Type
  3891 ;;                  1    wreg      void 
  3892 ;; Registers used:
  3893 ;;		None
  3894 ;; Tracked objects:
  3895 ;;		On entry : 0/0
  3896 ;;		On exit  : 0/0
  3897 ;;		Unchanged: 0/0
  3898 ;; Data sizes:     COMRAM   BANK0   BANK1   BANK2   BANK3   BANK4   BANK5   BANK6   BANK7   BANK8   BANK9  BANK10  BANK1
      +1  BANK12  BANK13  BANK14  BANK15
  3899 ;;      Params:         0       0       0       0       0       0       0       0       0       0       0       0       
      +0       0       0       0       0
  3900 ;;      Locals:         0       0       0       0       0       0       0       0       0       0       0       0       
      +0       0       0       0       0
  3901 ;;      Temps:          0       0       0       0       0       0       0       0       0       0       0       0       
      +0       0       0       0       0
  3902 ;;      Totals:         0       0       0       0       0       0       0       0       0       0       0       0       
      +0       0       0       0       0
  3903 ;;Total ram usage:        0 bytes
  3904 ;; Hardware stack levels used: 1
  3905 ;; This function calls:
  3906 ;;		Nothing
  3907 ;; This function is called by:
  3908 ;;		_I2C_DO_RCEN
  3909 ;; This function uses a non-reentrant model
  3910 ;;
  3911                           
  3912                           	psect	text49
  3913   001A4A                     __ptext49:
  3914                           	callstack 0
  3915   001A4A                     _I2C_MasterStartRx:
  3916                           	callstack 23
  3917   001A4A                     
  3918                           ;mcc_generated_files/i2c_master.c: 585:     SSPCON2bits.RCEN = 1;
  3919   001A4A  86C5               	bsf	197,3,c	;volatile
  3920   001A4C  0012               	return		;funcret
  3921   001A4E                     __end_of_I2C_MasterStartRx:
  3922                           	callstack 0
  3923                           
  3924 ;; *************** function _I2C_CallbackReturnReset *****************
  3925 ;; Defined at:
  3926 ;;		line 525 in file "mcc_generated_files/i2c_master.c"
  3927 ;; Parameters:    Size  Location     Type
  3928 ;;  funPtr          2    9[COMRAM] PTR void 
  3929 ;;		 -> I2C_ReadDataBlock@bufferBlock(4), I2C_Write2ByteRegister@data(2), I2C_Write1ByteRegister@data(1), I2C_Read2ByteR
      +egister@returnValue(2), 
  3930 ;;		 -> NULL(0), I2C_Read1ByteRegister@returnValue(1), 
  3931 ;; Auto vars:     Size  Location     Type
  3932 ;;		None
  3933 ;; Return value:  Size  Location     Type
  3934 ;;                  1    wreg      enum E363
  3935 ;; Registers used:
  3936 ;;		wreg
  3937 ;; Tracked objects:
  3938 ;;		On entry : 0/0
  3939 ;;		On exit  : 0/0
  3940 ;;		Unchanged: 0/0
  3941 ;; Data sizes:     COMRAM   BANK0   BANK1   BANK2   BANK3   BANK4   BANK5   BANK6   BANK7   BANK8   BANK9  BANK10  BANK1
      +1  BANK12  BANK13  BANK14  BANK15
  3942 ;;      Params:         2       0       0       0       0       0       0       0       0       0       0       0       
      +0       0       0       0       0
  3943 ;;      Locals:         0       0       0       0       0       0       0       0       0       0       0       0       
      +0       0       0       0       0
  3944 ;;      Temps:          0       0       0       0       0       0       0       0       0       0       0       0       
      +0       0       0       0       0
  3945 ;;      Totals:         2       0       0       0       0       0       0       0       0       0       0       0       
      +0       0       0       0       0
  3946 ;;Total ram usage:        2 bytes
  3947 ;; Hardware stack levels used: 1
  3948 ;; This function calls:
  3949 ;;		Nothing
  3950 ;; This function is called by:
  3951 ;;		_I2C_Open
  3952 ;;		_I2C_DO_TX
  3953 ;;		_I2C_DO_RX
  3954 ;;		_I2C_DO_TX_EMPTY
  3955 ;;		_I2C_DO_ADDRESS_NACK
  3956 ;;		_I2C_DO_RX_EMPTY
  3957 ;; This function uses a non-reentrant model
  3958 ;;
  3959                           
  3960                           	psect	text50
  3961   001A4E                     __ptext50:
  3962                           	callstack 0
  3963   001A4E                     _I2C_CallbackReturnReset:
  3964                           	callstack 23
  3965   001A4E                     
  3966                           ;mcc_generated_files/i2c_master.c: 525: i2c_operations_t I2C_CallbackReturnReset(void *f
      +                          unPtr);mcc_generated_files/i2c_master.c: 526: {;mcc_generated_files/i2c_master.c: 527:  
      +                             return I2C_RESET_LINK;
  3967   001A4E  0E05               	movlw	5
  3968   001A50  0012               	return		;funcret
  3969   001A52                     __end_of_I2C_CallbackReturnReset:
  3970                           	callstack 0
  3971                           
  3972 ;; *************** function _I2C_CallbackReturnStop *****************
  3973 ;; Defined at:
  3974 ;;		line 520 in file "mcc_generated_files/i2c_master.c"
  3975 ;; Parameters:    Size  Location     Type
  3976 ;;  funPtr          2    9[COMRAM] PTR void 
  3977 ;;		 -> I2C_ReadDataBlock@bufferBlock(4), I2C_Write2ByteRegister@data(2), I2C_Write1ByteRegister@data(1), I2C_Read2ByteR
      +egister@returnValue(2), 
  3978 ;;		 -> NULL(0), I2C_Read1ByteRegister@returnValue(1), 
  3979 ;; Auto vars:     Size  Location     Type
  3980 ;;		None
  3981 ;; Return value:  Size  Location     Type
  3982 ;;                  1    wreg      enum E363
  3983 ;; Registers used:
  3984 ;;		wreg
  3985 ;; Tracked objects:
  3986 ;;		On entry : 0/0
  3987 ;;		On exit  : 0/0
  3988 ;;		Unchanged: 0/0
  3989 ;; Data sizes:     COMRAM   BANK0   BANK1   BANK2   BANK3   BANK4   BANK5   BANK6   BANK7   BANK8   BANK9  BANK10  BANK1
      +1  BANK12  BANK13  BANK14  BANK15
  3990 ;;      Params:         2       0       0       0       0       0       0       0       0       0       0       0       
      +0       0       0       0       0
  3991 ;;      Locals:         0       0       0       0       0       0       0       0       0       0       0       0       
      +0       0       0       0       0
  3992 ;;      Temps:          0       0       0       0       0       0       0       0       0       0       0       0       
      +0       0       0       0       0
  3993 ;;      Totals:         2       0       0       0       0       0       0       0       0       0       0       0       
      +0       0       0       0       0
  3994 ;;Total ram usage:        2 bytes
  3995 ;; Hardware stack levels used: 1
  3996 ;; This function calls:
  3997 ;;		Nothing
  3998 ;; This function is called by:
  3999 ;;		_I2C_Open
  4000 ;;		_I2C_SetCallback
  4001 ;;		_I2C_DO_TX
  4002 ;;		_I2C_DO_RX
  4003 ;;		_I2C_DO_TX_EMPTY
  4004 ;;		_I2C_DO_ADDRESS_NACK
  4005 ;;		_I2C_DO_RX_EMPTY
  4006 ;; This function uses a non-reentrant model
  4007 ;;
  4008                           
  4009                           	psect	text51
  4010   001A52                     __ptext51:
  4011                           	callstack 0
  4012   001A52                     _I2C_CallbackReturnStop:
  4013                           	callstack 23
  4014   001A52                     
  4015                           ;mcc_generated_files/i2c_master.c: 520: i2c_operations_t I2C_CallbackReturnStop(void *fu
      +                          nPtr);mcc_generated_files/i2c_master.c: 521: {;mcc_generated_files/i2c_master.c: 522:   
      +                            return I2C_STOP;
  4016   001A52  0E01               	movlw	1
  4017   001A54  0012               	return		;funcret
  4018   001A56                     __end_of_I2C_CallbackReturnStop:
  4019                           	callstack 0
  4020                           
  4021 ;; *************** function _rdBlkRegCompleteHandler *****************
  4022 ;; Defined at:
  4023 ;;		line 170 in file "mcc_generated_files/examples/i2c_master_example.c"
  4024 ;; Parameters:    Size  Location     Type
  4025 ;;  ptr             2    9[COMRAM] PTR void 
  4026 ;;		 -> I2C_ReadDataBlock@bufferBlock(4), I2C_Write2ByteRegister@data(2), I2C_Write1ByteRegister@data(1), I2C_Read2ByteR
      +egister@returnValue(2), 
  4027 ;;		 -> NULL(0), I2C_Read1ByteRegister@returnValue(1), 
  4028 ;; Auto vars:     Size  Location     Type
  4029 ;;		None
  4030 ;; Return value:  Size  Location     Type
  4031 ;;                  1    wreg      enum E363
  4032 ;; Registers used:
  4033 ;;		wreg, fsr2l, fsr2h, status,2, status,0, prodl, prodh, cstack
  4034 ;; Tracked objects:
  4035 ;;		On entry : 0/0
  4036 ;;		On exit  : 0/0
  4037 ;;		Unchanged: 0/0
  4038 ;; Data sizes:     COMRAM   BANK0   BANK1   BANK2   BANK3   BANK4   BANK5   BANK6   BANK7   BANK8   BANK9  BANK10  BANK1
      +1  BANK12  BANK13  BANK14  BANK15
  4039 ;;      Params:         2       0       0       0       0       0       0       0       0       0       0       0       
      +0       0       0       0       0
  4040 ;;      Locals:         0       0       0       0       0       0       0       0       0       0       0       0       
      +0       0       0       0       0
  4041 ;;      Temps:          0       0       0       0       0       0       0       0       0       0       0       0       
      +0       0       0       0       0
  4042 ;;      Totals:         2       0       0       0       0       0       0       0       0       0       0       0       
      +0       0       0       0       0
  4043 ;;Total ram usage:        2 bytes
  4044 ;; Hardware stack levels used: 1
  4045 ;; Hardware stack levels required when called: 2
  4046 ;; This function calls:
  4047 ;;		_I2C_SetBuffer
  4048 ;;		_I2C_SetDataCompleteCallback
  4049 ;; This function is called by:
  4050 ;;		_I2C_ReadDataBlock
  4051 ;;		_I2C_DO_TX
  4052 ;;		_I2C_DO_RX
  4053 ;;		_I2C_DO_TX_EMPTY
  4054 ;;		_I2C_DO_ADDRESS_NACK
  4055 ;;		_I2C_DO_RX_EMPTY
  4056 ;; This function uses a non-reentrant model
  4057 ;;
  4058                           
  4059                           	psect	text52
  4060   001672                     __ptext52:
  4061                           	callstack 0
  4062   001672                     _rdBlkRegCompleteHandler:
  4063                           	callstack 21
  4064   001672                     
  4065                           ;mcc_generated_files/examples/i2c_master_example.c: 170: static i2c_operations_t rdBlkRe
      +                          gCompleteHandler(void *ptr);mcc_generated_files/examples/i2c_master_example.c: 171: {;mc
      +                          c_generated_files/examples/i2c_master_example.c: 172:     I2C_SetBuffer(((i2c_buffer_t *
      +                          )ptr)->data,((i2c_buffer_t*)ptr)->len);
  4066   001672  EE20 F002          	lfsr	2,2
  4067   001676  5035               	movf	rdBlkRegCompleteHandler@ptr^0,w,c
  4068   001678  26D9               	addwf	fsr2l,f,c
  4069   00167A  5036               	movf	(rdBlkRegCompleteHandler@ptr+1)^0,w,c
  4070   00167C  22DA               	addwfc	fsr2h,f,c
  4071   00167E  CFDE F02C          	movff	postinc2,I2C_SetBuffer@buffer
  4072   001682  CFDD F02D          	movff	postdec2,I2C_SetBuffer@buffer+1
  4073   001686  C035  FFD9         	movff	rdBlkRegCompleteHandler@ptr,fsr2l
  4074   00168A  C036  FFDA         	movff	rdBlkRegCompleteHandler@ptr+1,fsr2h
  4075   00168E  CFDE F02E          	movff	postinc2,I2C_SetBuffer@bufferSize
  4076   001692  CFDD F02F          	movff	postdec2,I2C_SetBuffer@bufferSize+1
  4077   001696  EC2B  F00C         	call	_I2C_SetBuffer	;wreg free
  4078   00169A                     
  4079                           ;mcc_generated_files/examples/i2c_master_example.c: 173:     I2C_SetDataCompleteCallback
      +                          (((void*)0),((void*)0));
  4080   00169A  0E00               	movlw	0
  4081   00169C  6E31               	movwf	I2C_SetDataCompleteCallback@cb^0,c
  4082   00169E  0E00               	movlw	0
  4083   0016A0  6E32               	movwf	(I2C_SetDataCompleteCallback@cb+1)^0,c
  4084   0016A2  0E00               	movlw	0
  4085   0016A4  6E33               	movwf	I2C_SetDataCompleteCallback@ptr^0,c
  4086   0016A6  0E00               	movlw	0
  4087   0016A8  6E34               	movwf	(I2C_SetDataCompleteCallback@ptr+1)^0,c
  4088   0016AA  EC6F  F00C         	call	_I2C_SetDataCompleteCallback	;wreg free
  4089   0016AE                     
  4090                           ;mcc_generated_files/examples/i2c_master_example.c: 174:     return I2C_RESTART_READ;
  4091   0016AE  0E02               	movlw	2
  4092   0016B0  0012               	return		;funcret
  4093   0016B2                     __end_of_rdBlkRegCompleteHandler:
  4094                           	callstack 0
  4095                           
  4096 ;; *************** function _wr1RegCompleteHandler *****************
  4097 ;; Defined at:
  4098 ;;		line 156 in file "mcc_generated_files/examples/i2c_master_example.c"
  4099 ;; Parameters:    Size  Location     Type
  4100 ;;  ptr             2    9[COMRAM] PTR void 
  4101 ;;		 -> I2C_ReadDataBlock@bufferBlock(4), I2C_Write2ByteRegister@data(2), I2C_Write1ByteRegister@data(1), I2C_Read2ByteR
      +egister@returnValue(2), 
  4102 ;;		 -> NULL(0), I2C_Read1ByteRegister@returnValue(1), 
  4103 ;; Auto vars:     Size  Location     Type
  4104 ;;		None
  4105 ;; Return value:  Size  Location     Type
  4106 ;;                  1    wreg      enum E363
  4107 ;; Registers used:
  4108 ;;		wreg, fsr2l, fsr2h, status,2, status,0, prodl, prodh, cstack
  4109 ;; Tracked objects:
  4110 ;;		On entry : 0/0
  4111 ;;		On exit  : 0/0
  4112 ;;		Unchanged: 0/0
  4113 ;; Data sizes:     COMRAM   BANK0   BANK1   BANK2   BANK3   BANK4   BANK5   BANK6   BANK7   BANK8   BANK9  BANK10  BANK1
      +1  BANK12  BANK13  BANK14  BANK15
  4114 ;;      Params:         2       0       0       0       0       0       0       0       0       0       0       0       
      +0       0       0       0       0
  4115 ;;      Locals:         0       0       0       0       0       0       0       0       0       0       0       0       
      +0       0       0       0       0
  4116 ;;      Temps:          0       0       0       0       0       0       0       0       0       0       0       0       
      +0       0       0       0       0
  4117 ;;      Totals:         2       0       0       0       0       0       0       0       0       0       0       0       
      +0       0       0       0       0
  4118 ;;Total ram usage:        2 bytes
  4119 ;; Hardware stack levels used: 1
  4120 ;; Hardware stack levels required when called: 2
  4121 ;; This function calls:
  4122 ;;		_I2C_SetBuffer
  4123 ;;		_I2C_SetDataCompleteCallback
  4124 ;; This function is called by:
  4125 ;;		_I2C_Write1ByteRegister
  4126 ;;		_I2C_DO_TX
  4127 ;;		_I2C_DO_RX
  4128 ;;		_I2C_DO_TX_EMPTY
  4129 ;;		_I2C_DO_ADDRESS_NACK
  4130 ;;		_I2C_DO_RX_EMPTY
  4131 ;; This function uses a non-reentrant model
  4132 ;;
  4133                           
  4134                           	psect	text53
  4135   00175A                     __ptext53:
  4136                           	callstack 0
  4137   00175A                     _wr1RegCompleteHandler:
  4138                           	callstack 21
  4139   00175A                     
  4140                           ;mcc_generated_files/examples/i2c_master_example.c: 156: static i2c_operations_t wr1RegC
      +                          ompleteHandler(void *ptr);mcc_generated_files/examples/i2c_master_example.c: 157: {;mcc_
      +                          generated_files/examples/i2c_master_example.c: 158:     I2C_SetBuffer(ptr,1);
  4141   00175A  C035  F02C         	movff	wr1RegCompleteHandler@ptr,I2C_SetBuffer@buffer
  4142   00175E  C036  F02D         	movff	wr1RegCompleteHandler@ptr+1,I2C_SetBuffer@buffer+1
  4143   001762  0E00               	movlw	0
  4144   001764  6E2F               	movwf	(I2C_SetBuffer@bufferSize+1)^0,c
  4145   001766  0E01               	movlw	1
  4146   001768  6E2E               	movwf	I2C_SetBuffer@bufferSize^0,c
  4147   00176A  EC2B  F00C         	call	_I2C_SetBuffer	;wreg free
  4148   00176E                     
  4149                           ;mcc_generated_files/examples/i2c_master_example.c: 159:     I2C_SetDataCompleteCallback
      +                          (((void*)0),((void*)0));
  4150   00176E  0E00               	movlw	0
  4151   001770  6E31               	movwf	I2C_SetDataCompleteCallback@cb^0,c
  4152   001772  0E00               	movlw	0
  4153   001774  6E32               	movwf	(I2C_SetDataCompleteCallback@cb+1)^0,c
  4154   001776  0E00               	movlw	0
  4155   001778  6E33               	movwf	I2C_SetDataCompleteCallback@ptr^0,c
  4156   00177A  0E00               	movlw	0
  4157   00177C  6E34               	movwf	(I2C_SetDataCompleteCallback@ptr+1)^0,c
  4158   00177E  EC6F  F00C         	call	_I2C_SetDataCompleteCallback	;wreg free
  4159   001782                     
  4160                           ;mcc_generated_files/examples/i2c_master_example.c: 160:     return I2C_CONTINUE;
  4161   001782  0E04               	movlw	4
  4162   001784  0012               	return		;funcret
  4163   001786                     __end_of_wr1RegCompleteHandler:
  4164                           	callstack 0
  4165                           
  4166 ;; *************** function _rd2RegCompleteHandler *****************
  4167 ;; Defined at:
  4168 ;;		line 149 in file "mcc_generated_files/examples/i2c_master_example.c"
  4169 ;; Parameters:    Size  Location     Type
  4170 ;;  ptr             2    9[COMRAM] PTR void 
  4171 ;;		 -> I2C_ReadDataBlock@bufferBlock(4), I2C_Write2ByteRegister@data(2), I2C_Write1ByteRegister@data(1), I2C_Read2ByteR
      +egister@returnValue(2), 
  4172 ;;		 -> NULL(0), I2C_Read1ByteRegister@returnValue(1), 
  4173 ;; Auto vars:     Size  Location     Type
  4174 ;;		None
  4175 ;; Return value:  Size  Location     Type
  4176 ;;                  1    wreg      enum E363
  4177 ;; Registers used:
  4178 ;;		wreg, fsr2l, fsr2h, status,2, status,0, prodl, prodh, cstack
  4179 ;; Tracked objects:
  4180 ;;		On entry : 0/0
  4181 ;;		On exit  : 0/0
  4182 ;;		Unchanged: 0/0
  4183 ;; Data sizes:     COMRAM   BANK0   BANK1   BANK2   BANK3   BANK4   BANK5   BANK6   BANK7   BANK8   BANK9  BANK10  BANK1
      +1  BANK12  BANK13  BANK14  BANK15
  4184 ;;      Params:         2       0       0       0       0       0       0       0       0       0       0       0       
      +0       0       0       0       0
  4185 ;;      Locals:         0       0       0       0       0       0       0       0       0       0       0       0       
      +0       0       0       0       0
  4186 ;;      Temps:          0       0       0       0       0       0       0       0       0       0       0       0       
      +0       0       0       0       0
  4187 ;;      Totals:         2       0       0       0       0       0       0       0       0       0       0       0       
      +0       0       0       0       0
  4188 ;;Total ram usage:        2 bytes
  4189 ;; Hardware stack levels used: 1
  4190 ;; Hardware stack levels required when called: 2
  4191 ;; This function calls:
  4192 ;;		_I2C_SetBuffer
  4193 ;;		_I2C_SetDataCompleteCallback
  4194 ;; This function is called by:
  4195 ;;		_I2C_Read2ByteRegister
  4196 ;;		_I2C_DO_TX
  4197 ;;		_I2C_DO_RX
  4198 ;;		_I2C_DO_TX_EMPTY
  4199 ;;		_I2C_DO_ADDRESS_NACK
  4200 ;;		_I2C_DO_RX_EMPTY
  4201 ;; This function uses a non-reentrant model
  4202 ;;
  4203                           
  4204                           	psect	text54
  4205   001786                     __ptext54:
  4206                           	callstack 0
  4207   001786                     _rd2RegCompleteHandler:
  4208                           	callstack 21
  4209   001786                     
  4210                           ;mcc_generated_files/examples/i2c_master_example.c: 149: static i2c_operations_t rd2RegC
      +                          ompleteHandler(void *ptr);mcc_generated_files/examples/i2c_master_example.c: 150: {;mcc_
      +                          generated_files/examples/i2c_master_example.c: 151:     I2C_SetBuffer(ptr,2);
  4211   001786  C035  F02C         	movff	rd2RegCompleteHandler@ptr,I2C_SetBuffer@buffer
  4212   00178A  C036  F02D         	movff	rd2RegCompleteHandler@ptr+1,I2C_SetBuffer@buffer+1
  4213   00178E  0E00               	movlw	0
  4214   001790  6E2F               	movwf	(I2C_SetBuffer@bufferSize+1)^0,c
  4215   001792  0E02               	movlw	2
  4216   001794  6E2E               	movwf	I2C_SetBuffer@bufferSize^0,c
  4217   001796  EC2B  F00C         	call	_I2C_SetBuffer	;wreg free
  4218   00179A                     
  4219                           ;mcc_generated_files/examples/i2c_master_example.c: 152:     I2C_SetDataCompleteCallback
      +                          (((void*)0),((void*)0));
  4220   00179A  0E00               	movlw	0
  4221   00179C  6E31               	movwf	I2C_SetDataCompleteCallback@cb^0,c
  4222   00179E  0E00               	movlw	0
  4223   0017A0  6E32               	movwf	(I2C_SetDataCompleteCallback@cb+1)^0,c
  4224   0017A2  0E00               	movlw	0
  4225   0017A4  6E33               	movwf	I2C_SetDataCompleteCallback@ptr^0,c
  4226   0017A6  0E00               	movlw	0
  4227   0017A8  6E34               	movwf	(I2C_SetDataCompleteCallback@ptr+1)^0,c
  4228   0017AA  EC6F  F00C         	call	_I2C_SetDataCompleteCallback	;wreg free
  4229   0017AE                     
  4230                           ;mcc_generated_files/examples/i2c_master_example.c: 153:     return I2C_RESTART_READ;
  4231   0017AE  0E02               	movlw	2
  4232   0017B0  0012               	return		;funcret
  4233   0017B2                     __end_of_rd2RegCompleteHandler:
  4234                           	callstack 0
  4235                           
  4236 ;; *************** function _rd1RegCompleteHandler *****************
  4237 ;; Defined at:
  4238 ;;		line 142 in file "mcc_generated_files/examples/i2c_master_example.c"
  4239 ;; Parameters:    Size  Location     Type
  4240 ;;  ptr             2    9[COMRAM] PTR void 
  4241 ;;		 -> I2C_ReadDataBlock@bufferBlock(4), I2C_Write2ByteRegister@data(2), I2C_Write1ByteRegister@data(1), I2C_Read2ByteR
      +egister@returnValue(2), 
  4242 ;;		 -> NULL(0), I2C_Read1ByteRegister@returnValue(1), 
  4243 ;; Auto vars:     Size  Location     Type
  4244 ;;		None
  4245 ;; Return value:  Size  Location     Type
  4246 ;;                  1    wreg      enum E363
  4247 ;; Registers used:
  4248 ;;		wreg, fsr2l, fsr2h, status,2, status,0, prodl, prodh, cstack
  4249 ;; Tracked objects:
  4250 ;;		On entry : 0/0
  4251 ;;		On exit  : 0/0
  4252 ;;		Unchanged: 0/0
  4253 ;; Data sizes:     COMRAM   BANK0   BANK1   BANK2   BANK3   BANK4   BANK5   BANK6   BANK7   BANK8   BANK9  BANK10  BANK1
      +1  BANK12  BANK13  BANK14  BANK15
  4254 ;;      Params:         2       0       0       0       0       0       0       0       0       0       0       0       
      +0       0       0       0       0
  4255 ;;      Locals:         0       0       0       0       0       0       0       0       0       0       0       0       
      +0       0       0       0       0
  4256 ;;      Temps:          0       0       0       0       0       0       0       0       0       0       0       0       
      +0       0       0       0       0
  4257 ;;      Totals:         2       0       0       0       0       0       0       0       0       0       0       0       
      +0       0       0       0       0
  4258 ;;Total ram usage:        2 bytes
  4259 ;; Hardware stack levels used: 1
  4260 ;; Hardware stack levels required when called: 2
  4261 ;; This function calls:
  4262 ;;		_I2C_SetBuffer
  4263 ;;		_I2C_SetDataCompleteCallback
  4264 ;; This function is called by:
  4265 ;;		_I2C_Read1ByteRegister
  4266 ;;		_I2C_DO_TX
  4267 ;;		_I2C_DO_RX
  4268 ;;		_I2C_DO_TX_EMPTY
  4269 ;;		_I2C_DO_ADDRESS_NACK
  4270 ;;		_I2C_DO_RX_EMPTY
  4271 ;; This function uses a non-reentrant model
  4272 ;;
  4273                           
  4274                           	psect	text55
  4275   0017B2                     __ptext55:
  4276                           	callstack 0
  4277   0017B2                     _rd1RegCompleteHandler:
  4278                           	callstack 21
  4279   0017B2                     
  4280                           ;mcc_generated_files/examples/i2c_master_example.c: 142: static i2c_operations_t rd1RegC
      +                          ompleteHandler(void *ptr);mcc_generated_files/examples/i2c_master_example.c: 143: {;mcc_
      +                          generated_files/examples/i2c_master_example.c: 144:     I2C_SetBuffer(ptr,1);
  4281   0017B2  C035  F02C         	movff	rd1RegCompleteHandler@ptr,I2C_SetBuffer@buffer
  4282   0017B6  C036  F02D         	movff	rd1RegCompleteHandler@ptr+1,I2C_SetBuffer@buffer+1
  4283   0017BA  0E00               	movlw	0
  4284   0017BC  6E2F               	movwf	(I2C_SetBuffer@bufferSize+1)^0,c
  4285   0017BE  0E01               	movlw	1
  4286   0017C0  6E2E               	movwf	I2C_SetBuffer@bufferSize^0,c
  4287   0017C2  EC2B  F00C         	call	_I2C_SetBuffer	;wreg free
  4288   0017C6                     
  4289                           ;mcc_generated_files/examples/i2c_master_example.c: 145:     I2C_SetDataCompleteCallback
      +                          (((void*)0),((void*)0));
  4290   0017C6  0E00               	movlw	0
  4291   0017C8  6E31               	movwf	I2C_SetDataCompleteCallback@cb^0,c
  4292   0017CA  0E00               	movlw	0
  4293   0017CC  6E32               	movwf	(I2C_SetDataCompleteCallback@cb+1)^0,c
  4294   0017CE  0E00               	movlw	0
  4295   0017D0  6E33               	movwf	I2C_SetDataCompleteCallback@ptr^0,c
  4296   0017D2  0E00               	movlw	0
  4297   0017D4  6E34               	movwf	(I2C_SetDataCompleteCallback@ptr+1)^0,c
  4298   0017D6  EC6F  F00C         	call	_I2C_SetDataCompleteCallback	;wreg free
  4299   0017DA                     
  4300                           ;mcc_generated_files/examples/i2c_master_example.c: 146:     return I2C_RESTART_READ;
  4301   0017DA  0E02               	movlw	2
  4302   0017DC  0012               	return		;funcret
  4303   0017DE                     __end_of_rd1RegCompleteHandler:
  4304                           	callstack 0
  4305                           
  4306 ;; *************** function _wr2RegCompleteHandler *****************
  4307 ;; Defined at:
  4308 ;;		line 163 in file "mcc_generated_files/examples/i2c_master_example.c"
  4309 ;; Parameters:    Size  Location     Type
  4310 ;;  ptr             2    9[COMRAM] PTR void 
  4311 ;;		 -> I2C_ReadDataBlock@bufferBlock(4), I2C_Write2ByteRegister@data(2), I2C_Write1ByteRegister@data(1), I2C_Read2ByteR
      +egister@returnValue(2), 
  4312 ;;		 -> NULL(0), I2C_Read1ByteRegister@returnValue(1), 
  4313 ;; Auto vars:     Size  Location     Type
  4314 ;;		None
  4315 ;; Return value:  Size  Location     Type
  4316 ;;                  1    wreg      enum E363
  4317 ;; Registers used:
  4318 ;;		wreg, fsr2l, fsr2h, status,2, status,0, prodl, prodh, cstack
  4319 ;; Tracked objects:
  4320 ;;		On entry : 0/0
  4321 ;;		On exit  : 0/0
  4322 ;;		Unchanged: 0/0
  4323 ;; Data sizes:     COMRAM   BANK0   BANK1   BANK2   BANK3   BANK4   BANK5   BANK6   BANK7   BANK8   BANK9  BANK10  BANK1
      +1  BANK12  BANK13  BANK14  BANK15
  4324 ;;      Params:         2       0       0       0       0       0       0       0       0       0       0       0       
      +0       0       0       0       0
  4325 ;;      Locals:         0       0       0       0       0       0       0       0       0       0       0       0       
      +0       0       0       0       0
  4326 ;;      Temps:          0       0       0       0       0       0       0       0       0       0       0       0       
      +0       0       0       0       0
  4327 ;;      Totals:         2       0       0       0       0       0       0       0       0       0       0       0       
      +0       0       0       0       0
  4328 ;;Total ram usage:        2 bytes
  4329 ;; Hardware stack levels used: 1
  4330 ;; Hardware stack levels required when called: 2
  4331 ;; This function calls:
  4332 ;;		_I2C_SetBuffer
  4333 ;;		_I2C_SetDataCompleteCallback
  4334 ;; This function is called by:
  4335 ;;		_I2C_Write2ByteRegister
  4336 ;;		_I2C_DO_TX
  4337 ;;		_I2C_DO_RX
  4338 ;;		_I2C_DO_TX_EMPTY
  4339 ;;		_I2C_DO_ADDRESS_NACK
  4340 ;;		_I2C_DO_RX_EMPTY
  4341 ;; This function uses a non-reentrant model
  4342 ;;
  4343                           
  4344                           	psect	text56
  4345   0017DE                     __ptext56:
  4346                           	callstack 0
  4347   0017DE                     _wr2RegCompleteHandler:
  4348                           	callstack 21
  4349   0017DE                     
  4350                           ;mcc_generated_files/examples/i2c_master_example.c: 163: static i2c_operations_t wr2RegC
      +                          ompleteHandler(void *ptr);mcc_generated_files/examples/i2c_master_example.c: 164: {;mcc_
      +                          generated_files/examples/i2c_master_example.c: 165:     I2C_SetBuffer(ptr,2);
  4351   0017DE  C035  F02C         	movff	wr2RegCompleteHandler@ptr,I2C_SetBuffer@buffer
  4352   0017E2  C036  F02D         	movff	wr2RegCompleteHandler@ptr+1,I2C_SetBuffer@buffer+1
  4353   0017E6  0E00               	movlw	0
  4354   0017E8  6E2F               	movwf	(I2C_SetBuffer@bufferSize+1)^0,c
  4355   0017EA  0E02               	movlw	2
  4356   0017EC  6E2E               	movwf	I2C_SetBuffer@bufferSize^0,c
  4357   0017EE  EC2B  F00C         	call	_I2C_SetBuffer	;wreg free
  4358   0017F2                     
  4359                           ;mcc_generated_files/examples/i2c_master_example.c: 166:     I2C_SetDataCompleteCallback
      +                          (((void*)0),((void*)0));
  4360   0017F2  0E00               	movlw	0
  4361   0017F4  6E31               	movwf	I2C_SetDataCompleteCallback@cb^0,c
  4362   0017F6  0E00               	movlw	0
  4363   0017F8  6E32               	movwf	(I2C_SetDataCompleteCallback@cb+1)^0,c
  4364   0017FA  0E00               	movlw	0
  4365   0017FC  6E33               	movwf	I2C_SetDataCompleteCallback@ptr^0,c
  4366   0017FE  0E00               	movlw	0
  4367   001800  6E34               	movwf	(I2C_SetDataCompleteCallback@ptr+1)^0,c
  4368   001802  EC6F  F00C         	call	_I2C_SetDataCompleteCallback	;wreg free
  4369   001806                     
  4370                           ;mcc_generated_files/examples/i2c_master_example.c: 167:     return I2C_CONTINUE;
  4371   001806  0E04               	movlw	4
  4372   001808  0012               	return		;funcret
  4373   00180A                     __end_of_wr2RegCompleteHandler:
  4374                           	callstack 0
  4375                           
  4376 ;; *************** function _I2C_SetDataCompleteCallback *****************
  4377 ;; Defined at:
  4378 ;;		line 273 in file "mcc_generated_files/i2c_master.c"
  4379 ;; Parameters:    Size  Location     Type
  4380 ;;  cb              2    5[COMRAM] PTR FTN(PTR void ,)enum 
  4381 ;;		 -> NULL(1), rdBlkRegCompleteHandler(1), wr2RegCompleteHandler(1), wr1RegCompleteHandler(1), 
  4382 ;;		 -> rd2RegCompleteHandler(1), rd1RegCompleteHandler(1), 
  4383 ;;  ptr             2    7[COMRAM] PTR void 
  4384 ;;		 -> I2C_ReadDataBlock@bufferBlock(4), I2C_Write2ByteRegister@data(2), I2C_Write1ByteRegister@data(1), I2C_Read2ByteR
      +egister@returnValue(2), 
  4385 ;;		 -> NULL(0), I2C_Read1ByteRegister@returnValue(1), 
  4386 ;; Auto vars:     Size  Location     Type
  4387 ;;		None
  4388 ;; Return value:  Size  Location     Type
  4389 ;;                  1    wreg      void 
  4390 ;; Registers used:
  4391 ;;		wreg, fsr2l, fsr2h, status,2, status,0, prodl, prodh, cstack
  4392 ;; Tracked objects:
  4393 ;;		On entry : 0/0
  4394 ;;		On exit  : 0/0
  4395 ;;		Unchanged: 0/0
  4396 ;; Data sizes:     COMRAM   BANK0   BANK1   BANK2   BANK3   BANK4   BANK5   BANK6   BANK7   BANK8   BANK9  BANK10  BANK1
      +1  BANK12  BANK13  BANK14  BANK15
  4397 ;;      Params:         4       0       0       0       0       0       0       0       0       0       0       0       
      +0       0       0       0       0
  4398 ;;      Locals:         0       0       0       0       0       0       0       0       0       0       0       0       
      +0       0       0       0       0
  4399 ;;      Temps:          0       0       0       0       0       0       0       0       0       0       0       0       
      +0       0       0       0       0
  4400 ;;      Totals:         4       0       0       0       0       0       0       0       0       0       0       0       
      +0       0       0       0       0
  4401 ;;Total ram usage:        4 bytes
  4402 ;; Hardware stack levels used: 1
  4403 ;; Hardware stack levels required when called: 1
  4404 ;; This function calls:
  4405 ;;		_I2C_SetCallback
  4406 ;; This function is called by:
  4407 ;;		_I2C_Read1ByteRegister
  4408 ;;		_I2C_Write1ByteRegister
  4409 ;;		_rd1RegCompleteHandler
  4410 ;;		_rd2RegCompleteHandler
  4411 ;;		_wr1RegCompleteHandler
  4412 ;;		_wr2RegCompleteHandler
  4413 ;;		_rdBlkRegCompleteHandler
  4414 ;;		_I2C_Read2ByteRegister
  4415 ;;		_I2C_Write2ByteRegister
  4416 ;;		_I2C_ReadDataBlock
  4417 ;; This function uses a non-reentrant model
  4418 ;;
  4419                           
  4420                           	psect	text57
  4421   0018DE                     __ptext57:
  4422                           	callstack 0
  4423   0018DE                     _I2C_SetDataCompleteCallback:
  4424                           	callstack 27
  4425   0018DE                     
  4426                           ;mcc_generated_files/i2c_master.c: 273: void I2C_SetDataCompleteCallback(i2c_callback_t 
      +                          cb, void *ptr);mcc_generated_files/i2c_master.c: 274: {;mcc_generated_files/i2c_master.c
      +                          : 275:     I2C_SetCallback(I2C_DATA_COMPLETE, cb, ptr);
  4427   0018DE  C031  F02C         	movff	I2C_SetDataCompleteCallback@cb,I2C_SetCallback@cb
  4428   0018E2  C032  F02D         	movff	I2C_SetDataCompleteCallback@cb+1,I2C_SetCallback@cb+1
  4429   0018E6  C033  F02E         	movff	I2C_SetDataCompleteCallback@ptr,I2C_SetCallback@ptr
  4430   0018EA  C034  F02F         	movff	I2C_SetDataCompleteCallback@ptr+1,I2C_SetCallback@ptr+1
  4431   0018EE  0E00               	movlw	0
  4432   0018F0  EC06  F00A         	call	_I2C_SetCallback
  4433   0018F4  0012               	return		;funcret
  4434   0018F6                     __end_of_I2C_SetDataCompleteCallback:
  4435                           	callstack 0
  4436                           
  4437 ;; *************** function _I2C_SetCallback *****************
  4438 ;; Defined at:
  4439 ;;		line 298 in file "mcc_generated_files/i2c_master.c"
  4440 ;; Parameters:    Size  Location     Type
  4441 ;;  idx             1    wreg     enum E3133
  4442 ;;  cb              2    0[COMRAM] PTR FTN(PTR void ,)enum 
  4443 ;;		 -> NULL(1), rdBlkRegCompleteHandler(1), wr2RegCompleteHandler(1), wr1RegCompleteHandler(1), 
  4444 ;;		 -> rd2RegCompleteHandler(1), rd1RegCompleteHandler(1), 
  4445 ;;  ptr             2    2[COMRAM] PTR void 
  4446 ;;		 -> I2C_ReadDataBlock@bufferBlock(4), I2C_Write2ByteRegister@data(2), I2C_Write1ByteRegister@data(1), I2C_Read2ByteR
      +egister@returnValue(2), 
  4447 ;;		 -> NULL(0), I2C_Read1ByteRegister@returnValue(1), 
  4448 ;; Auto vars:     Size  Location     Type
  4449 ;;  idx             1    4[COMRAM] enum E3133
  4450 ;; Return value:  Size  Location     Type
  4451 ;;                  1    wreg      void 
  4452 ;; Registers used:
  4453 ;;		wreg, fsr2l, fsr2h, status,2, status,0, prodl, prodh
  4454 ;; Tracked objects:
  4455 ;;		On entry : 0/0
  4456 ;;		On exit  : 0/0
  4457 ;;		Unchanged: 0/0
  4458 ;; Data sizes:     COMRAM   BANK0   BANK1   BANK2   BANK3   BANK4   BANK5   BANK6   BANK7   BANK8   BANK9  BANK10  BANK1
      +1  BANK12  BANK13  BANK14  BANK15
  4459 ;;      Params:         4       0       0       0       0       0       0       0       0       0       0       0       
      +0       0       0       0       0
  4460 ;;      Locals:         1       0       0       0       0       0       0       0       0       0       0       0       
      +0       0       0       0       0
  4461 ;;      Temps:          0       0       0       0       0       0       0       0       0       0       0       0       
      +0       0       0       0       0
  4462 ;;      Totals:         5       0       0       0       0       0       0       0       0       0       0       0       
      +0       0       0       0       0
  4463 ;;Total ram usage:        5 bytes
  4464 ;; Hardware stack levels used: 1
  4465 ;; This function calls:
  4466 ;;		Nothing
  4467 ;; This function is called by:
  4468 ;;		_I2C_SetDataCompleteCallback
  4469 ;;		_I2C_SetAddressNackCallback
  4470 ;;		_I2C_SetWriteCollisionCallback
  4471 ;;		_I2C_SetDataNackCallback
  4472 ;;		_I2C_SetTimeoutCallback
  4473 ;; This function uses a non-reentrant model
  4474 ;;
  4475                           
  4476                           	psect	text58
  4477   00140C                     __ptext58:
  4478                           	callstack 0
  4479   00140C                     _I2C_SetCallback:
  4480                           	callstack 27
  4481                           
  4482                           ;incstack = 0
  4483                           ;I2C_SetCallback@idx stored from wreg
  4484   00140C  6E30               	movwf	I2C_SetCallback@idx^0,c
  4485   00140E                     
  4486                           ;mcc_generated_files/i2c_master.c: 298: static void I2C_SetCallback(i2c_callbackIndex_t 
      +                          idx, i2c_callback_t cb, void *ptr);mcc_generated_files/i2c_master.c: 299: {;mcc_generate
      +                          d_files/i2c_master.c: 300:     if(cb)
  4487   00140E  502C               	movf	I2C_SetCallback@cb^0,w,c
  4488   001410  102D               	iorwf	(I2C_SetCallback@cb+1)^0,w,c
  4489   001412  B4D8               	btfsc	status,2,c
  4490   001414  EF0E  F00A         	goto	u551
  4491   001418  EF10  F00A         	goto	u550
  4492   00141C                     u551:
  4493   00141C  EF2A  F00A         	goto	l2290
  4494   001420                     u550:
  4495   001420                     
  4496                           ;mcc_generated_files/i2c_master.c: 301:     {;mcc_generated_files/i2c_master.c: 302:    
      +                               I2C_Status.callbackTable[idx] = cb;
  4497   001420  5030               	movf	I2C_SetCallback@idx^0,w,c
  4498   001422  0D02               	mullw	2
  4499   001424  0E01               	movlw	low _I2C_Status
  4500   001426  24F3               	addwf	243,w,c
  4501   001428  6ED9               	movwf	fsr2l,c
  4502   00142A  0E00               	movlw	high _I2C_Status
  4503   00142C  20F4               	addwfc	prodh,w,c
  4504   00142E  6EDA               	movwf	fsr2h,c
  4505   001430  C02C  FFDE         	movff	I2C_SetCallback@cb,postinc2
  4506   001434  C02D  FFDD         	movff	I2C_SetCallback@cb+1,postdec2
  4507                           
  4508                           ;mcc_generated_files/i2c_master.c: 303:         I2C_Status.callbackPayload[idx] = ptr;
  4509   001438  5030               	movf	I2C_SetCallback@idx^0,w,c
  4510   00143A  0D02               	mullw	2
  4511   00143C  0E0D               	movlw	low (_I2C_Status+12)
  4512   00143E  24F3               	addwf	243,w,c
  4513   001440  6ED9               	movwf	fsr2l,c
  4514   001442  0E00               	movlw	high (_I2C_Status+12)
  4515   001444  20F4               	addwfc	prodh,w,c
  4516   001446  6EDA               	movwf	fsr2h,c
  4517   001448  C02E  FFDE         	movff	I2C_SetCallback@ptr,postinc2
  4518   00144C  C02F  FFDD         	movff	I2C_SetCallback@ptr+1,postdec2
  4519                           
  4520                           ;mcc_generated_files/i2c_master.c: 304:     }
  4521   001450  EF40  F00A         	goto	l375
  4522   001454                     l2290:
  4523                           
  4524                           ;mcc_generated_files/i2c_master.c: 306:     {;mcc_generated_files/i2c_master.c: 307:    
      +                               I2C_Status.callbackTable[idx] = I2C_CallbackReturnStop;
  4525   001454  5030               	movf	I2C_SetCallback@idx^0,w,c
  4526   001456  0D02               	mullw	2
  4527   001458  0E01               	movlw	low _I2C_Status
  4528   00145A  24F3               	addwf	243,w,c
  4529   00145C  6ED9               	movwf	fsr2l,c
  4530   00145E  0E00               	movlw	high _I2C_Status
  4531   001460  20F4               	addwfc	prodh,w,c
  4532   001462  6EDA               	movwf	fsr2h,c
  4533   001464  0E52               	movlw	low _I2C_CallbackReturnStop
  4534   001466  6EDE               	movwf	postinc2,c
  4535   001468  0E1A               	movlw	high _I2C_CallbackReturnStop
  4536   00146A  6EDD               	movwf	postdec2,c
  4537                           
  4538                           ;mcc_generated_files/i2c_master.c: 308:         I2C_Status.callbackPayload[idx] = ((void
      +                          *)0);
  4539   00146C  5030               	movf	I2C_SetCallback@idx^0,w,c
  4540   00146E  0D02               	mullw	2
  4541   001470  0E0D               	movlw	low (_I2C_Status+12)
  4542   001472  24F3               	addwf	243,w,c
  4543   001474  6ED9               	movwf	fsr2l,c
  4544   001476  0E00               	movlw	high (_I2C_Status+12)
  4545   001478  20F4               	addwfc	prodh,w,c
  4546   00147A  6EDA               	movwf	fsr2h,c
  4547   00147C  6ADE               	clrf	postinc2,c
  4548   00147E  6ADD               	clrf	postdec2,c
  4549   001480                     l375:
  4550   001480  0012               	return		;funcret
  4551   001482                     __end_of_I2C_SetCallback:
  4552                           	callstack 0
  4553                           
  4554 ;; *************** function _I2C_SetBuffer *****************
  4555 ;; Defined at:
  4556 ;;		line 263 in file "mcc_generated_files/i2c_master.c"
  4557 ;; Parameters:    Size  Location     Type
  4558 ;;  buffer          2    0[COMRAM] PTR void 
  4559 ;;		 -> I2C_Read1ByteRegister@returnValue.data(3), I2C_Read2ByteRegister@returnValue.data(3), I2C_Write1ByteRegister@dat
      +a.data(3), I2C_Write2ByteRegister@data.data(3), 
  4560 ;;		 -> I2C_ReadDataBlock@reg(1), I2C_ReadDataBlock@bufferBlock(4), bufferBlock.data(3), I2C_Write2ByteRegister@reg(1), 
  4561 ;;		 -> I2C_Write2ByteRegister@data(2), I2C_Write1ByteRegister@reg(1), I2C_Write1ByteRegister@data(1), I2C_Read2ByteRegi
      +ster@reg(1), 
  4562 ;;		 -> I2C_Read2ByteRegister@returnValue(2), NULL(0), I2C_Read1ByteRegister@reg(1), I2C_Read1ByteRegister@returnValue(1
      +), 
  4563 ;;  bufferSize      2    2[COMRAM] unsigned int 
  4564 ;; Auto vars:     Size  Location     Type
  4565 ;;		None
  4566 ;; Return value:  Size  Location     Type
  4567 ;;                  1    wreg      void 
  4568 ;; Registers used:
  4569 ;;		wreg, status,2, status,0
  4570 ;; Tracked objects:
  4571 ;;		On entry : 0/0
  4572 ;;		On exit  : 0/0
  4573 ;;		Unchanged: 0/0
  4574 ;; Data sizes:     COMRAM   BANK0   BANK1   BANK2   BANK3   BANK4   BANK5   BANK6   BANK7   BANK8   BANK9  BANK10  BANK1
      +1  BANK12  BANK13  BANK14  BANK15
  4575 ;;      Params:         4       0       0       0       0       0       0       0       0       0       0       0       
      +0       0       0       0       0
  4576 ;;      Locals:         0       0       0       0       0       0       0       0       0       0       0       0       
      +0       0       0       0       0
  4577 ;;      Temps:          0       0       0       0       0       0       0       0       0       0       0       0       
      +0       0       0       0       0
  4578 ;;      Totals:         4       0       0       0       0       0       0       0       0       0       0       0       
      +0       0       0       0       0
  4579 ;;Total ram usage:        4 bytes
  4580 ;; Hardware stack levels used: 1
  4581 ;; This function calls:
  4582 ;;		Nothing
  4583 ;; This function is called by:
  4584 ;;		_I2C_Read1ByteRegister
  4585 ;;		_I2C_Write1ByteRegister
  4586 ;;		_rd1RegCompleteHandler
  4587 ;;		_rd2RegCompleteHandler
  4588 ;;		_wr1RegCompleteHandler
  4589 ;;		_wr2RegCompleteHandler
  4590 ;;		_rdBlkRegCompleteHandler
  4591 ;;		_I2C_Read2ByteRegister
  4592 ;;		_I2C_Write2ByteRegister
  4593 ;;		_I2C_WriteNBytes
  4594 ;;		_I2C_ReadNBytes
  4595 ;;		_I2C_ReadDataBlock
  4596 ;; This function uses a non-reentrant model
  4597 ;;
  4598                           
  4599                           	psect	text59
  4600   001856                     __ptext59:
  4601                           	callstack 0
  4602   001856                     _I2C_SetBuffer:
  4603                           	callstack 28
  4604   001856                     
  4605                           ;mcc_generated_files/i2c_master.c: 263: void I2C_SetBuffer(void *buffer, size_t bufferSi
      +                          ze);mcc_generated_files/i2c_master.c: 264: {;mcc_generated_files/i2c_master.c: 265:     
      +                          if(I2C_Status.bufferFree)
  4606   001856  A624               	btfss	(_I2C_Status+35)^0,3,c
  4607   001858  EF30  F00C         	goto	u561
  4608   00185C  EF32  F00C         	goto	u560
  4609   001860                     u561:
  4610   001860  EF3B  F00C         	goto	l355
  4611   001864                     u560:
  4612   001864                     
  4613                           ;mcc_generated_files/i2c_master.c: 266:     {;mcc_generated_files/i2c_master.c: 267:    
      +                               I2C_Status.data_ptr = buffer;
  4614   001864  C02C  F01E         	movff	I2C_SetBuffer@buffer,_I2C_Status+29
  4615   001868  C02D  F01F         	movff	I2C_SetBuffer@buffer+1,_I2C_Status+30
  4616   00186C                     
  4617                           ;mcc_generated_files/i2c_master.c: 268:         I2C_Status.data_length = bufferSize;
  4618   00186C  C02E  F020         	movff	I2C_SetBuffer@bufferSize,_I2C_Status+31
  4619   001870  C02F  F021         	movff	I2C_SetBuffer@bufferSize+1,_I2C_Status+32
  4620   001874                     
  4621                           ;mcc_generated_files/i2c_master.c: 269:         I2C_Status.bufferFree = 0;
  4622   001874  9624               	bcf	(_I2C_Status+35)^0,3,c
  4623   001876                     l355:
  4624   001876  0012               	return		;funcret
  4625   001878                     __end_of_I2C_SetBuffer:
  4626                           	callstack 0
  4627                           
  4628 ;; *************** function _I2C_MasterStop *****************
  4629 ;; Defined at:
  4630 ;;		line 593 in file "mcc_generated_files/i2c_master.c"
  4631 ;; Parameters:    Size  Location     Type
  4632 ;;		None
  4633 ;; Auto vars:     Size  Location     Type
  4634 ;;		None
  4635 ;; Return value:  Size  Location     Type
  4636 ;;                  1    wreg      void 
  4637 ;; Registers used:
  4638 ;;		None
  4639 ;; Tracked objects:
  4640 ;;		On entry : 0/0
  4641 ;;		On exit  : 0/0
  4642 ;;		Unchanged: 0/0
  4643 ;; Data sizes:     COMRAM   BANK0   BANK1   BANK2   BANK3   BANK4   BANK5   BANK6   BANK7   BANK8   BANK9  BANK10  BANK1
      +1  BANK12  BANK13  BANK14  BANK15
  4644 ;;      Params:         0       0       0       0       0       0       0       0       0       0       0       0       
      +0       0       0       0       0
  4645 ;;      Locals:         0       0       0       0       0       0       0       0       0       0       0       0       
      +0       0       0       0       0
  4646 ;;      Temps:          0       0       0       0       0       0       0       0       0       0       0       0       
      +0       0       0       0       0
  4647 ;;      Totals:         0       0       0       0       0       0       0       0       0       0       0       0       
      +0       0       0       0       0
  4648 ;;Total ram usage:        0 bytes
  4649 ;; Hardware stack levels used: 1
  4650 ;; This function calls:
  4651 ;;		Nothing
  4652 ;; This function is called by:
  4653 ;;		_I2C_DO_SEND_STOP
  4654 ;; This function uses a non-reentrant model
  4655 ;;
  4656                           
  4657                           	psect	text60
  4658   001A56                     __ptext60:
  4659                           	callstack 0
  4660   001A56                     _I2C_MasterStop:
  4661                           	callstack 22
  4662   001A56                     
  4663                           ;mcc_generated_files/i2c_master.c: 595:     SSPCON2bits.PEN = 1;
  4664   001A56  84C5               	bsf	197,2,c	;volatile
  4665   001A58  0012               	return		;funcret
  4666   001A5A                     __end_of_I2C_MasterStop:
  4667                           	callstack 0
  4668                           
  4669 ;; *************** function _I2C_MasterEnableRestart *****************
  4670 ;; Defined at:
  4671 ;;		line 573 in file "mcc_generated_files/i2c_master.c"
  4672 ;; Parameters:    Size  Location     Type
  4673 ;;		None
  4674 ;; Auto vars:     Size  Location     Type
  4675 ;;		None
  4676 ;; Return value:  Size  Location     Type
  4677 ;;                  1    wreg      void 
  4678 ;; Registers used:
  4679 ;;		None
  4680 ;; Tracked objects:
  4681 ;;		On entry : 0/0
  4682 ;;		On exit  : 0/0
  4683 ;;		Unchanged: 0/0
  4684 ;; Data sizes:     COMRAM   BANK0   BANK1   BANK2   BANK3   BANK4   BANK5   BANK6   BANK7   BANK8   BANK9  BANK10  BANK1
      +1  BANK12  BANK13  BANK14  BANK15
  4685 ;;      Params:         0       0       0       0       0       0       0       0       0       0       0       0       
      +0       0       0       0       0
  4686 ;;      Locals:         0       0       0       0       0       0       0       0       0       0       0       0       
      +0       0       0       0       0
  4687 ;;      Temps:          0       0       0       0       0       0       0       0       0       0       0       0       
      +0       0       0       0       0
  4688 ;;      Totals:         0       0       0       0       0       0       0       0       0       0       0       0       
      +0       0       0       0       0
  4689 ;;Total ram usage:        0 bytes
  4690 ;; Hardware stack levels used: 1
  4691 ;; This function calls:
  4692 ;;		Nothing
  4693 ;; This function is called by:
  4694 ;;		_I2C_DO_SEND_RESTART_READ
  4695 ;;		_I2C_DO_SEND_RESTART_WRITE
  4696 ;;		_I2C_DO_SEND_RESTART
  4697 ;;		_I2C_DO_RX_EMPTY
  4698 ;; This function uses a non-reentrant model
  4699 ;;
  4700                           
  4701                           	psect	text61
  4702   001A5A                     __ptext61:
  4703                           	callstack 0
  4704   001A5A                     _I2C_MasterEnableRestart:
  4705                           	callstack 22
  4706   001A5A                     
  4707                           ;mcc_generated_files/i2c_master.c: 575:     SSPCON2bits.RSEN = 1;
  4708   001A5A  82C5               	bsf	197,1,c	;volatile
  4709   001A5C  0012               	return		;funcret
  4710   001A5E                     __end_of_I2C_MasterEnableRestart:
  4711                           	callstack 0
  4712                           
  4713 ;; *************** function _I2C_MasterStart *****************
  4714 ;; Defined at:
  4715 ;;		line 588 in file "mcc_generated_files/i2c_master.c"
  4716 ;; Parameters:    Size  Location     Type
  4717 ;;		None
  4718 ;; Auto vars:     Size  Location     Type
  4719 ;;		None
  4720 ;; Return value:  Size  Location     Type
  4721 ;;                  1    wreg      void 
  4722 ;; Registers used:
  4723 ;;		None
  4724 ;; Tracked objects:
  4725 ;;		On entry : 0/0
  4726 ;;		On exit  : 0/0
  4727 ;;		Unchanged: 0/0
  4728 ;; Data sizes:     COMRAM   BANK0   BANK1   BANK2   BANK3   BANK4   BANK5   BANK6   BANK7   BANK8   BANK9  BANK10  BANK1
      +1  BANK12  BANK13  BANK14  BANK15
  4729 ;;      Params:         0       0       0       0       0       0       0       0       0       0       0       0       
      +0       0       0       0       0
  4730 ;;      Locals:         0       0       0       0       0       0       0       0       0       0       0       0       
      +0       0       0       0       0
  4731 ;;      Temps:          0       0       0       0       0       0       0       0       0       0       0       0       
      +0       0       0       0       0
  4732 ;;      Totals:         0       0       0       0       0       0       0       0       0       0       0       0       
      +0       0       0       0       0
  4733 ;;Total ram usage:        0 bytes
  4734 ;; Hardware stack levels used: 1
  4735 ;; This function calls:
  4736 ;;		Nothing
  4737 ;; This function is called by:
  4738 ;;		_I2C_MasterOperation
  4739 ;; This function uses a non-reentrant model
  4740 ;;
  4741                           
  4742                           	psect	text62
  4743   001A5E                     __ptext62:
  4744                           	callstack 0
  4745   001A5E                     _I2C_MasterStart:
  4746                           	callstack 26
  4747   001A5E                     
  4748                           ;mcc_generated_files/i2c_master.c: 590:     SSPCON2bits.SEN = 1;
  4749   001A5E  80C5               	bsf	197,0,c	;volatile
  4750   001A60  0012               	return		;funcret
  4751   001A62                     __end_of_I2C_MasterStart:
  4752                           	callstack 0
  4753                           
  4754 ;; *************** function _I2C_Close *****************
  4755 ;; Defined at:
  4756 ;;		line 209 in file "mcc_generated_files/i2c_master.c"
  4757 ;; Parameters:    Size  Location     Type
  4758 ;;		None
  4759 ;; Auto vars:     Size  Location     Type
  4760 ;;  returnValue     1    0[COMRAM] enum E358
  4761 ;; Return value:  Size  Location     Type
  4762 ;;                  1    wreg      enum E358
  4763 ;; Registers used:
  4764 ;;		wreg, status,2, cstack
  4765 ;; Tracked objects:
  4766 ;;		On entry : 0/0
  4767 ;;		On exit  : 0/0
  4768 ;;		Unchanged: 0/0
  4769 ;; Data sizes:     COMRAM   BANK0   BANK1   BANK2   BANK3   BANK4   BANK5   BANK6   BANK7   BANK8   BANK9  BANK10  BANK1
      +1  BANK12  BANK13  BANK14  BANK15
  4770 ;;      Params:         0       0       0       0       0       0       0       0       0       0       0       0       
      +0       0       0       0       0
  4771 ;;      Locals:         1       0       0       0       0       0       0       0       0       0       0       0       
      +0       0       0       0       0
  4772 ;;      Temps:          0       0       0       0       0       0       0       0       0       0       0       0       
      +0       0       0       0       0
  4773 ;;      Totals:         1       0       0       0       0       0       0       0       0       0       0       0       
      +0       0       0       0       0
  4774 ;;Total ram usage:        1 bytes
  4775 ;; Hardware stack levels used: 1
  4776 ;; Hardware stack levels required when called: 1
  4777 ;; This function calls:
  4778 ;;		_I2C_MasterClearIrq
  4779 ;;		_I2C_MasterClose
  4780 ;;		_I2C_MasterDisableIrq
  4781 ;; This function is called by:
  4782 ;;		_I2C_Read1ByteRegister
  4783 ;;		_I2C_Write1ByteRegister
  4784 ;;		_I2C_Read2ByteRegister
  4785 ;;		_I2C_Write2ByteRegister
  4786 ;;		_I2C_WriteNBytes
  4787 ;;		_I2C_ReadNBytes
  4788 ;;		_I2C_ReadDataBlock
  4789 ;; This function uses a non-reentrant model
  4790 ;;
  4791                           
  4792                           	psect	text63
  4793   00180A                     __ptext63:
  4794                           	callstack 0
  4795   00180A                     _I2C_Close:
  4796                           	callstack 27
  4797   00180A                     
  4798                           ;mcc_generated_files/i2c_master.c: 211:     i2c_error_t returnValue = I2C_BUSY;
  4799   00180A  0E01               	movlw	1
  4800   00180C  6E2C               	movwf	I2C_Close@returnValue^0,c
  4801   00180E                     
  4802                           ;mcc_generated_files/i2c_master.c: 212:     if(!I2C_Status.busy)
  4803   00180E  B224               	btfsc	(_I2C_Status+35)^0,1,c
  4804   001810  EF0C  F00C         	goto	u201
  4805   001814  EF0E  F00C         	goto	u200
  4806   001818                     u201:
  4807   001818  EF18  F00C         	goto	l1790
  4808   00181C                     u200:
  4809   00181C                     
  4810                           ;mcc_generated_files/i2c_master.c: 213:     {;mcc_generated_files/i2c_master.c: 214:    
      +                               I2C_Status.inUse = 0;
  4811   00181C  9424               	bcf	(_I2C_Status+35)^0,2,c
  4812                           
  4813                           ;mcc_generated_files/i2c_master.c: 215:         I2C_Status.address = 0xff;
  4814   00181E  681D               	setf	(_I2C_Status+28)^0,c
  4815   001820                     
  4816                           ;mcc_generated_files/i2c_master.c: 216:         I2C_MasterClearIrq();
  4817   001820  EC35  F00D         	call	_I2C_MasterClearIrq	;wreg free
  4818                           
  4819                           ;mcc_generated_files/i2c_master.c: 217:         I2C_MasterDisableIrq();
  4820   001824  EC31  F00D         	call	_I2C_MasterDisableIrq	;wreg free
  4821                           
  4822                           ;mcc_generated_files/i2c_master.c: 218:         I2C_MasterClose();
  4823   001828  EC33  F00D         	call	_I2C_MasterClose	;wreg free
  4824   00182C                     
  4825                           ;mcc_generated_files/i2c_master.c: 219:         returnValue = I2C_Status.error;
  4826   00182C  C023  F02C         	movff	_I2C_Status+34,I2C_Close@returnValue
  4827   001830                     l1790:
  4828                           
  4829                           ;mcc_generated_files/i2c_master.c: 221:     return returnValue;
  4830   001830  502C               	movf	I2C_Close@returnValue^0,w,c
  4831   001832  0012               	return		;funcret
  4832   001834                     __end_of_I2C_Close:
  4833                           	callstack 0
  4834                           
  4835 ;; *************** function _I2C_MasterDisableIrq *****************
  4836 ;; Defined at:
  4837 ;;		line 635 in file "mcc_generated_files/i2c_master.c"
  4838 ;; Parameters:    Size  Location     Type
  4839 ;;		None
  4840 ;; Auto vars:     Size  Location     Type
  4841 ;;		None
  4842 ;; Return value:  Size  Location     Type
  4843 ;;                  1    wreg      void 
  4844 ;; Registers used:
  4845 ;;		None
  4846 ;; Tracked objects:
  4847 ;;		On entry : 0/0
  4848 ;;		On exit  : 0/0
  4849 ;;		Unchanged: 0/0
  4850 ;; Data sizes:     COMRAM   BANK0   BANK1   BANK2   BANK3   BANK4   BANK5   BANK6   BANK7   BANK8   BANK9  BANK10  BANK1
      +1  BANK12  BANK13  BANK14  BANK15
  4851 ;;      Params:         0       0       0       0       0       0       0       0       0       0       0       0       
      +0       0       0       0       0
  4852 ;;      Locals:         0       0       0       0       0       0       0       0       0       0       0       0       
      +0       0       0       0       0
  4853 ;;      Temps:          0       0       0       0       0       0       0       0       0       0       0       0       
      +0       0       0       0       0
  4854 ;;      Totals:         0       0       0       0       0       0       0       0       0       0       0       0       
      +0       0       0       0       0
  4855 ;;Total ram usage:        0 bytes
  4856 ;; Hardware stack levels used: 1
  4857 ;; This function calls:
  4858 ;;		Nothing
  4859 ;; This function is called by:
  4860 ;;		_I2C_Close
  4861 ;;		_I2C_SetTimeOut
  4862 ;; This function uses a non-reentrant model
  4863 ;;
  4864                           
  4865                           	psect	text64
  4866   001A62                     __ptext64:
  4867                           	callstack 0
  4868   001A62                     _I2C_MasterDisableIrq:
  4869                           	callstack 27
  4870   001A62                     
  4871                           ;mcc_generated_files/i2c_master.c: 637:     PIE1bits.SSPIE = 0;
  4872   001A62  969D               	bcf	157,3,c	;volatile
  4873   001A64  0012               	return		;funcret
  4874   001A66                     __end_of_I2C_MasterDisableIrq:
  4875                           	callstack 0
  4876                           
  4877 ;; *************** function _I2C_MasterClose *****************
  4878 ;; Defined at:
  4879 ;;		line 557 in file "mcc_generated_files/i2c_master.c"
  4880 ;; Parameters:    Size  Location     Type
  4881 ;;		None
  4882 ;; Auto vars:     Size  Location     Type
  4883 ;;		None
  4884 ;; Return value:  Size  Location     Type
  4885 ;;                  1    wreg      void 
  4886 ;; Registers used:
  4887 ;;		None
  4888 ;; Tracked objects:
  4889 ;;		On entry : 0/0
  4890 ;;		On exit  : 0/0
  4891 ;;		Unchanged: 0/0
  4892 ;; Data sizes:     COMRAM   BANK0   BANK1   BANK2   BANK3   BANK4   BANK5   BANK6   BANK7   BANK8   BANK9  BANK10  BANK1
      +1  BANK12  BANK13  BANK14  BANK15
  4893 ;;      Params:         0       0       0       0       0       0       0       0       0       0       0       0       
      +0       0       0       0       0
  4894 ;;      Locals:         0       0       0       0       0       0       0       0       0       0       0       0       
      +0       0       0       0       0
  4895 ;;      Temps:          0       0       0       0       0       0       0       0       0       0       0       0       
      +0       0       0       0       0
  4896 ;;      Totals:         0       0       0       0       0       0       0       0       0       0       0       0       
      +0       0       0       0       0
  4897 ;;Total ram usage:        0 bytes
  4898 ;; Hardware stack levels used: 1
  4899 ;; This function calls:
  4900 ;;		Nothing
  4901 ;; This function is called by:
  4902 ;;		_I2C_Close
  4903 ;; This function uses a non-reentrant model
  4904 ;;
  4905                           
  4906                           	psect	text65
  4907   001A66                     __ptext65:
  4908                           	callstack 0
  4909   001A66                     _I2C_MasterClose:
  4910                           	callstack 27
  4911   001A66                     
  4912                           ;mcc_generated_files/i2c_master.c: 560:     SSPCON1bits.SSPEN = 0;
  4913   001A66  9AC6               	bcf	198,5,c	;volatile
  4914   001A68  0012               	return		;funcret
  4915   001A6A                     __end_of_I2C_MasterClose:
  4916                           	callstack 0
  4917                           
  4918 ;; *************** function _I2C_MasterClearIrq *****************
  4919 ;; Defined at:
  4920 ;;		line 640 in file "mcc_generated_files/i2c_master.c"
  4921 ;; Parameters:    Size  Location     Type
  4922 ;;		None
  4923 ;; Auto vars:     Size  Location     Type
  4924 ;;		None
  4925 ;; Return value:  Size  Location     Type
  4926 ;;                  1    wreg      void 
  4927 ;; Registers used:
  4928 ;;		None
  4929 ;; Tracked objects:
  4930 ;;		On entry : 0/0
  4931 ;;		On exit  : 0/0
  4932 ;;		Unchanged: 0/0
  4933 ;; Data sizes:     COMRAM   BANK0   BANK1   BANK2   BANK3   BANK4   BANK5   BANK6   BANK7   BANK8   BANK9  BANK10  BANK1
      +1  BANK12  BANK13  BANK14  BANK15
  4934 ;;      Params:         0       0       0       0       0       0       0       0       0       0       0       0       
      +0       0       0       0       0
  4935 ;;      Locals:         0       0       0       0       0       0       0       0       0       0       0       0       
      +0       0       0       0       0
  4936 ;;      Temps:          0       0       0       0       0       0       0       0       0       0       0       0       
      +0       0       0       0       0
  4937 ;;      Totals:         0       0       0       0       0       0       0       0       0       0       0       0       
      +0       0       0       0       0
  4938 ;;Total ram usage:        0 bytes
  4939 ;; Hardware stack levels used: 1
  4940 ;; This function calls:
  4941 ;;		Nothing
  4942 ;; This function is called by:
  4943 ;;		_I2C_Open
  4944 ;;		_I2C_Close
  4945 ;;		_I2C_MasterFsm
  4946 ;; This function uses a non-reentrant model
  4947 ;;
  4948                           
  4949                           	psect	text66
  4950   001A6A                     __ptext66:
  4951                           	callstack 0
  4952   001A6A                     _I2C_MasterClearIrq:
  4953                           	callstack 27
  4954   001A6A                     
  4955                           ;mcc_generated_files/i2c_master.c: 642:     PIR1bits.SSPIF = 0;
  4956   001A6A  969E               	bcf	158,3,c	;volatile
  4957   001A6C  0012               	return		;funcret
  4958   001A6E                     __end_of_I2C_MasterClearIrq:
  4959                           	callstack 0
  4960                           
  4961                           	psect	text67
  4962   000000                     __ptext67:
  4963                           	callstack 0
  4964   000000                     
  4965                           	psect	rparam
  4966   000000                     
  4967                           	psect	config
  4968                           
  4969                           ; Padding undefined space
  4970   300000                     	org	3145728
  4971   300000  FF                 	db	255
  4972                           
  4973                           ;Config register CONFIG1H @ 0x300001
  4974                           ;	Oscillator Selection bits
  4975                           ;	FOSC = HS, HS oscillator
  4976                           ;	Fail-Safe Clock Monitor Enable bit
  4977                           ;	FCMEN = OFF, Fail-Safe Clock Monitor disabled
  4978                           ;	Internal/External Oscillator Switchover bit
  4979                           ;	IESO = OFF, Oscillator Switchover mode disabled
  4980   300001                     	org	3145729
  4981   300001  02                 	db	2
  4982                           
  4983                           ;Config register CONFIG2L @ 0x300002
  4984                           ;	Power-up Timer Enable bit
  4985                           ;	PWRTEN = OFF, PWRT disabled
  4986                           ;	Brown-out Reset Enable bits
  4987                           ;	BOREN = SBORDIS, Brown-out Reset enabled in hardware only (SBOREN is disabled)
  4988                           ;	Brown Out Reset Voltage bits
  4989                           ;	BORV = 18, VBOR set to 1.8 V nominal
  4990   300002                     	org	3145730
  4991   300002  1F                 	db	31
  4992                           
  4993                           ;Config register CONFIG2H @ 0x300003
  4994                           ;	Watchdog Timer Enable bit
  4995                           ;	WDTEN = OFF, WDT is controlled by SWDTEN bit of the WDTCON register
  4996                           ;	Watchdog Timer Postscale Select bits
  4997                           ;	WDTPS = 32768, 1:32768
  4998   300003                     	org	3145731
  4999   300003  1E                 	db	30
  5000                           
  5001                           ; Padding undefined space
  5002   300004                     	org	3145732
  5003   300004  FF                 	db	255
  5004                           
  5005                           ;Config register CONFIG3H @ 0x300005
  5006                           ;	CCP2 MUX bit
  5007                           ;	CCP2MX = PORTC, CCP2 input/output is multiplexed with RC1
  5008                           ;	PORTB A/D Enable bit
  5009                           ;	PBADEN = ON, PORTB<4:0> pins are configured as analog input channels on Reset
  5010                           ;	Low-Power Timer1 Oscillator Enable bit
  5011                           ;	LPT1OSC = OFF, Timer1 configured for higher power operation
  5012                           ;	HFINTOSC Fast Start-up
  5013                           ;	HFOFST = ON, HFINTOSC starts clocking the CPU without waiting for the oscillator to st
      +                          ablize.
  5014                           ;	MCLR Pin Enable bit
  5015                           ;	MCLRE = ON, MCLR pin enabled; RE3 input pin disabled
  5016   300005                     	org	3145733
  5017   300005  8B                 	db	139
  5018                           
  5019                           ;Config register CONFIG4L @ 0x300006
  5020                           ;	Stack Full/Underflow Reset Enable bit
  5021                           ;	STVREN = ON, Stack full/underflow will cause Reset
  5022                           ;	Single-Supply ICSP Enable bit
  5023                           ;	LVP = ON, Single-Supply ICSP enabled
  5024                           ;	Extended Instruction Set Enable bit
  5025                           ;	XINST = OFF, Instruction set extension and Indexed Addressing mode disabled (Legacy mo
      +                          de)
  5026                           ;	Background Debugger Enable bit
  5027                           ;	DEBUG = OFF, Background debugger disabled, RB6 and RB7 configured as general purpose I
      +                          /O pins
  5028   300006                     	org	3145734
  5029   300006  85                 	db	133
  5030                           
  5031                           ; Padding undefined space
  5032   300007                     	org	3145735
  5033   300007  FF                 	db	255
  5034                           
  5035                           ;Config register CONFIG5L @ 0x300008
  5036                           ;	Code Protection Block 0
  5037                           ;	CP0 = OFF, Block 0 (000800-003FFFh) not code-protected
  5038                           ;	Code Protection Block 1
  5039                           ;	CP1 = OFF, Block 1 (004000-007FFFh) not code-protected
  5040                           ;	Code Protection Block 2
  5041                           ;	CP2 = OFF, Block 2 (008000-00BFFFh) not code-protected
  5042                           ;	Code Protection Block 3
  5043                           ;	CP3 = OFF, Block 3 (00C000-00FFFFh) not code-protected
  5044   300008                     	org	3145736
  5045   300008  0F                 	db	15
  5046                           
  5047                           ;Config register CONFIG5H @ 0x300009
  5048                           ;	Boot Block Code Protection bit
  5049                           ;	CPB = OFF, Boot block (000000-0007FFh) not code-protected
  5050                           ;	Data EEPROM Code Protection bit
  5051                           ;	CPD = OFF, Data EEPROM not code-protected
  5052   300009                     	org	3145737
  5053   300009  C0                 	db	192
  5054                           
  5055                           ;Config register CONFIG6L @ 0x30000A
  5056                           ;	Write Protection Block 0
  5057                           ;	WRT0 = OFF, Block 0 (000800-003FFFh) not write-protected
  5058                           ;	Write Protection Block 1
  5059                           ;	WRT1 = OFF, Block 1 (004000-007FFFh) not write-protected
  5060                           ;	Write Protection Block 2
  5061                           ;	WRT2 = OFF, Block 2 (008000-00BFFFh) not write-protected
  5062                           ;	Write Protection Block 3
  5063                           ;	WRT3 = OFF, Block 3 (00C000h-00FFFFh) not write-protected
  5064   30000A                     	org	3145738
  5065   30000A  0F                 	db	15
  5066                           
  5067                           ;Config register CONFIG6H @ 0x30000B
  5068                           ;	Configuration Register Write Protection bit
  5069                           ;	WRTC = OFF, Configuration registers (300000-3000FFh) not write-protected
  5070                           ;	Boot Block Write Protection bit
  5071                           ;	WRTB = OFF, Boot Block (000000-0007FFh) not write-protected
  5072                           ;	Data EEPROM Write Protection bit
  5073                           ;	WRTD = OFF, Data EEPROM not write-protected
  5074   30000B                     	org	3145739
  5075   30000B  E0                 	db	224
  5076                           
  5077                           ;Config register CONFIG7L @ 0x30000C
  5078                           ;	Table Read Protection Block 0
  5079                           ;	EBTR0 = OFF, Block 0 (000800-003FFFh) not protected from table reads executed in other
      +                           blocks
  5080                           ;	Table Read Protection Block 1
  5081                           ;	EBTR1 = OFF, Block 1 (004000-007FFFh) not protected from table reads executed in other
      +                           blocks
  5082                           ;	Table Read Protection Block 2
  5083                           ;	EBTR2 = OFF, Block 2 (008000-00BFFFh) not protected from table reads executed in other
      +                           blocks
  5084                           ;	Table Read Protection Block 3
  5085                           ;	EBTR3 = OFF, Block 3 (00C000-00FFFFh) not protected from table reads executed in other
      +                           blocks
  5086   30000C                     	org	3145740
  5087   30000C  0F                 	db	15
  5088                           
  5089                           ;Config register CONFIG7H @ 0x30000D
  5090                           ;	Boot Block Table Read Protection bit
  5091                           ;	EBTRB = OFF, Boot Block (000000-0007FFh) not protected from table reads executed in ot
      +                          her blocks
  5092   30000D                     	org	3145741
  5093   30000D  40                 	db	64
  5094                           tosu	equ	0xFFF
  5095                           tosh	equ	0xFFE
  5096                           tosl	equ	0xFFD
  5097                           stkptr	equ	0xFFC
  5098                           pclatu	equ	0xFFB
  5099                           pclath	equ	0xFFA
  5100                           pcl	equ	0xFF9
  5101                           tblptru	equ	0xFF8
  5102                           tblptrh	equ	0xFF7
  5103                           tblptrl	equ	0xFF6
  5104                           tablat	equ	0xFF5
  5105                           prodh	equ	0xFF4
  5106                           prodl	equ	0xFF3
  5107                           indf0	equ	0xFEF
  5108                           postinc0	equ	0xFEE
  5109                           postdec0	equ	0xFED
  5110                           preinc0	equ	0xFEC
  5111                           plusw0	equ	0xFEB
  5112                           fsr0h	equ	0xFEA
  5113                           fsr0l	equ	0xFE9
  5114                           wreg	equ	0xFE8
  5115                           indf1	equ	0xFE7
  5116                           postinc1	equ	0xFE6
  5117                           postdec1	equ	0xFE5
  5118                           preinc1	equ	0xFE4
  5119                           plusw1	equ	0xFE3
  5120                           fsr1h	equ	0xFE2
  5121                           fsr1l	equ	0xFE1
  5122                           bsr	equ	0xFE0
  5123                           indf2	equ	0xFDF
  5124                           postinc2	equ	0xFDE
  5125                           postdec2	equ	0xFDD
  5126                           preinc2	equ	0xFDC
  5127                           plusw2	equ	0xFDB
  5128                           fsr2h	equ	0xFDA
  5129                           fsr2l	equ	0xFD9
  5130                           status	equ	0xFD8

Data Sizes:
    Strings     16
    Constant    32
    Data        0
    BSS         43
    Persistent  6
    Stack       0

Auto Spaces:
    Space          Size  Autos    Used
    COMRAM           95     27      76
    BANK0           160      0       0
    BANK1           256      0       0
    BANK2           256      0       0
    BANK3           256      0       0
    BANK4           256      0       0
    BANK5           256      0       0
    BANK6           256      0       0
    BANK7           256      0       0
    BANK8           256      0       0
    BANK9           256      0       0
    BANK10          256      0       0
    BANK11          256      0       0
    BANK12          256      0       0
    BANK13          256      0       0
    BANK14          256      0       0
    BANK15           96      0       0

Pointer List with Targets:

    I2C_Read1ByteRegister@returnValue.data	PTR unsigned char  size(2) Largest target is 0

    I2C_Read2ByteRegister@returnValue.data	PTR unsigned char  size(2) Largest target is 0

    I2C_Write1ByteRegister@data.data	PTR unsigned char  size(2) Largest target is 0

    I2C_Write2ByteRegister@data.data	PTR unsigned char  size(2) Largest target is 0

    I2C_DO_TX$2190$0	PTR void  size(2) Largest target is 5
		 -> I2C_ReadDataBlock@bufferBlock(COMRAM[4]), I2C_Write2ByteRegister@data(COMRAM[2]), I2C_Write1ByteRegister@data(COMRAM[1]), I2C_Read2ByteRegister@returnValue(COMRAM[2]), 
		 -> NULL(NULL[0]), I2C_Read1ByteRegister@returnValue(COMRAM[1]), 

    I2C_DO_RX$2196$0	PTR void  size(2) Largest target is 5
		 -> I2C_ReadDataBlock@bufferBlock(COMRAM[4]), I2C_Write2ByteRegister@data(COMRAM[2]), I2C_Write1ByteRegister@data(COMRAM[1]), I2C_Read2ByteRegister@returnValue(COMRAM[2]), 
		 -> NULL(NULL[0]), I2C_Read1ByteRegister@returnValue(COMRAM[1]), 

    I2C_DO_TX_EMPTY$2202$0	PTR void  size(2) Largest target is 5
		 -> I2C_ReadDataBlock@bufferBlock(COMRAM[4]), I2C_Write2ByteRegister@data(COMRAM[2]), I2C_Write1ByteRegister@data(COMRAM[1]), I2C_Read2ByteRegister@returnValue(COMRAM[2]), 
		 -> NULL(NULL[0]), I2C_Read1ByteRegister@returnValue(COMRAM[1]), 

    I2C_DO_RX_EMPTY$2208$0	PTR void  size(2) Largest target is 5
		 -> I2C_ReadDataBlock@bufferBlock(COMRAM[4]), I2C_Write2ByteRegister@data(COMRAM[2]), I2C_Write1ByteRegister@data(COMRAM[1]), I2C_Read2ByteRegister@returnValue(COMRAM[2]), 
		 -> NULL(NULL[0]), I2C_Read1ByteRegister@returnValue(COMRAM[1]), 

    I2C_DO_TX_EMPTY$2207	PTR void  size(2) Largest target is 5
		 -> I2C_ReadDataBlock@bufferBlock(COMRAM[4]), I2C_Write2ByteRegister@data(COMRAM[2]), I2C_Write1ByteRegister@data(COMRAM[1]), I2C_Read2ByteRegister@returnValue(COMRAM[2]), 
		 -> NULL(NULL[0]), I2C_Read1ByteRegister@returnValue(COMRAM[1]), 

    I2C_DO_TX_EMPTY$2202	PTR FTN(PTR void ,)enum E363 size(2) Largest target is 1
		 -> I2C_CallbackReturnReset(), I2C_CallbackReturnStop(), NULL(), rdBlkRegCompleteHandler(), 
		 -> wr2RegCompleteHandler(), wr1RegCompleteHandler(), rd2RegCompleteHandler(), rd1RegCompleteHandler(), 

    I2C_DO_RX$2201	PTR void  size(2) Largest target is 5
		 -> I2C_ReadDataBlock@bufferBlock(COMRAM[4]), I2C_Write2ByteRegister@data(COMRAM[2]), I2C_Write1ByteRegister@data(COMRAM[1]), I2C_Read2ByteRegister@returnValue(COMRAM[2]), 
		 -> NULL(NULL[0]), I2C_Read1ByteRegister@returnValue(COMRAM[1]), 

    I2C_DO_RX$2196	PTR FTN(PTR void ,)enum E363 size(2) Largest target is 1
		 -> I2C_CallbackReturnReset(), I2C_CallbackReturnStop(), NULL(), rdBlkRegCompleteHandler(), 
		 -> wr2RegCompleteHandler(), wr1RegCompleteHandler(), rd2RegCompleteHandler(), rd1RegCompleteHandler(), 

    I2C_DO_TX$2195	PTR void  size(2) Largest target is 5
		 -> I2C_ReadDataBlock@bufferBlock(COMRAM[4]), I2C_Write2ByteRegister@data(COMRAM[2]), I2C_Write1ByteRegister@data(COMRAM[1]), I2C_Read2ByteRegister@returnValue(COMRAM[2]), 
		 -> NULL(NULL[0]), I2C_Read1ByteRegister@returnValue(COMRAM[1]), 

    I2C_DO_TX$2190	PTR FTN(PTR void ,)enum E363 size(2) Largest target is 1
		 -> I2C_CallbackReturnReset(), I2C_CallbackReturnStop(), NULL(), rdBlkRegCompleteHandler(), 
		 -> wr2RegCompleteHandler(), wr1RegCompleteHandler(), rd2RegCompleteHandler(), rd1RegCompleteHandler(), 

    I2C_MasterFsm$2189	const PTR FTN()enum E3115 size(2) Largest target is 1
		 -> I2C_DO_ADDRESS_NACK(), I2C_DO_RESET(), I2C_DO_RX_NACK_RESTART(), I2C_DO_RX_NACK_STOP(), 
		 -> I2C_DO_RX_ACK(), I2C_DO_SEND_STOP(), I2C_DO_SEND_RESTART(), I2C_DO_SEND_RESTART_WRITE(), 
		 -> I2C_DO_SEND_RESTART_READ(), I2C_DO_TX_EMPTY(), I2C_DO_RCEN(), I2C_DO_RX(), 
		 -> I2C_DO_TX(), I2C_DO_SEND_ADR_WRITE(), I2C_DO_SEND_ADR_READ(), I2C_DO_IDLE(), 

    I2C_CallbackReturnStop@funPtr	PTR void  size(2) Largest target is 5
		 -> I2C_ReadDataBlock@bufferBlock(COMRAM[4]), I2C_Write2ByteRegister@data(COMRAM[2]), I2C_Write1ByteRegister@data(COMRAM[1]), I2C_Read2ByteRegister@returnValue(COMRAM[2]), 
		 -> NULL(NULL[0]), I2C_Read1ByteRegister@returnValue(COMRAM[1]), 

    I2C_CallbackReturnReset@funPtr	PTR void  size(2) Largest target is 5
		 -> I2C_ReadDataBlock@bufferBlock(COMRAM[4]), I2C_Write2ByteRegister@data(COMRAM[2]), I2C_Write1ByteRegister@data(COMRAM[1]), I2C_Read2ByteRegister@returnValue(COMRAM[2]), 
		 -> NULL(NULL[0]), I2C_Read1ByteRegister@returnValue(COMRAM[1]), 

    cb$0	PTR void  size(2) Largest target is 5
		 -> I2C_ReadDataBlock@bufferBlock(COMRAM[4]), I2C_Write2ByteRegister@data(COMRAM[2]), I2C_Write1ByteRegister@data(COMRAM[1]), I2C_Read2ByteRegister@returnValue(COMRAM[2]), 
		 -> NULL(NULL[0]), I2C_Read1ByteRegister@returnValue(COMRAM[1]), 

    NULL$0	PTR void  size(2) Largest target is 5
		 -> I2C_ReadDataBlock@bufferBlock(COMRAM[4]), I2C_Write2ByteRegister@data(COMRAM[2]), I2C_Write1ByteRegister@data(COMRAM[1]), I2C_Read2ByteRegister@returnValue(COMRAM[2]), 
		 -> NULL(NULL[0]), I2C_Read1ByteRegister@returnValue(COMRAM[1]), 

    cb$0	PTR void  size(2) Largest target is 5
		 -> I2C_ReadDataBlock@bufferBlock(COMRAM[4]), I2C_Write2ByteRegister@data(COMRAM[2]), I2C_Write1ByteRegister@data(COMRAM[1]), I2C_Read2ByteRegister@returnValue(COMRAM[2]), 
		 -> NULL(NULL[0]), I2C_Read1ByteRegister@returnValue(COMRAM[1]), 

    S549$0$0	PTR void  size(2) Largest target is 5
		 -> I2C_ReadDataBlock@bufferBlock(COMRAM[4]), I2C_Write2ByteRegister@data(COMRAM[2]), I2C_Write1ByteRegister@data(COMRAM[1]), I2C_Read2ByteRegister@returnValue(COMRAM[2]), 
		 -> NULL(NULL[0]), I2C_Read1ByteRegister@returnValue(COMRAM[1]), 

    EUSART_SetErrorHandler@interruptHandler	PTR FTN()void  size(2) Largest target is 1
		 -> EUSART_DefaultErrorHandler(), 

    EUSART_ErrorHandler	PTR FTN()void  size(2) Largest target is 1
		 -> EUSART_DefaultErrorHandler(), NULL(), 

    EUSART_SetOverrunErrorHandler@interruptHandler	PTR FTN()void  size(2) Largest target is 1
		 -> EUSART_DefaultOverrunErrorHandler(), 

    EUSART_OverrunErrorHandler	PTR FTN()void  size(2) Largest target is 1
		 -> EUSART_DefaultOverrunErrorHandler(), NULL(), 

    EUSART_SetFramingErrorHandler@interruptHandler	PTR FTN()void  size(2) Largest target is 1
		 -> EUSART_DefaultFramingErrorHandler(), 

    EUSART_FramingErrorHandler	PTR FTN()void  size(2) Largest target is 1
		 -> EUSART_DefaultFramingErrorHandler(), NULL(), 

    EUSART_Write_String@str	PTR unsigned char  size(2) Largest target is 7
		 -> STR_4(CODE[2]), STR_3(CODE[7]), STR_2(CODE[2]), STR_1(CODE[7]), 

    I2C_SetCallback@ptr	PTR void  size(2) Largest target is 5
		 -> I2C_ReadDataBlock@bufferBlock(COMRAM[4]), I2C_Write2ByteRegister@data(COMRAM[2]), I2C_Write1ByteRegister@data(COMRAM[1]), I2C_Read2ByteRegister@returnValue(COMRAM[2]), 
		 -> NULL(NULL[0]), I2C_Read1ByteRegister@returnValue(COMRAM[1]), 

    I2C_SetCallback@cb	PTR FTN(PTR void ,)enum E363 size(2) Largest target is 1
		 -> NULL(), rdBlkRegCompleteHandler(), wr2RegCompleteHandler(), wr1RegCompleteHandler(), 
		 -> rd2RegCompleteHandler(), rd1RegCompleteHandler(), 

    I2C_SetAddressNackCallback@ptr	PTR void  size(2) Largest target is 0
		 -> NULL(NULL[0]), 

    I2C_SetAddressNackCallback@cb	PTR FTN(PTR void ,)enum E363 size(2) Largest target is 1
		 -> NULL(), 

    I2C_SetDataCompleteCallback@ptr	PTR void  size(2) Largest target is 5
		 -> I2C_ReadDataBlock@bufferBlock(COMRAM[4]), I2C_Write2ByteRegister@data(COMRAM[2]), I2C_Write1ByteRegister@data(COMRAM[1]), I2C_Read2ByteRegister@returnValue(COMRAM[2]), 
		 -> NULL(NULL[0]), I2C_Read1ByteRegister@returnValue(COMRAM[1]), 

    I2C_SetDataCompleteCallback@cb	PTR FTN(PTR void ,)enum E363 size(2) Largest target is 1
		 -> NULL(), rdBlkRegCompleteHandler(), wr2RegCompleteHandler(), wr1RegCompleteHandler(), 
		 -> rd2RegCompleteHandler(), rd1RegCompleteHandler(), 

    I2C_SetBuffer@buffer	PTR void  size(2) Largest target is 5
		 -> I2C_Read1ByteRegister@returnValue.data(COMRAM[3]), I2C_Read2ByteRegister@returnValue.data(COMRAM[3]), I2C_Write1ByteRegister@data.data(COMRAM[3]), I2C_Write2ByteRegister@data.data(COMRAM[3]), 
		 -> I2C_ReadDataBlock@reg(COMRAM[1]), I2C_ReadDataBlock@bufferBlock(COMRAM[4]), bufferBlock.data(COMRAM[3]), I2C_Write2ByteRegister@reg(COMRAM[1]), 
		 -> I2C_Write2ByteRegister@data(COMRAM[2]), I2C_Write1ByteRegister@reg(COMRAM[1]), I2C_Write1ByteRegister@data(COMRAM[1]), I2C_Read2ByteRegister@reg(COMRAM[1]), 
		 -> I2C_Read2ByteRegister@returnValue(COMRAM[2]), NULL(NULL[0]), I2C_Read1ByteRegister@reg(COMRAM[1]), I2C_Read1ByteRegister@returnValue(COMRAM[1]), 

    S549$data_ptr	PTR unsigned char  size(2) Largest target is 5
		 -> I2C_ReadDataBlock@reg(COMRAM[1]), I2C_ReadDataBlock@bufferBlock(COMRAM[4]), I2C_Write2ByteRegister@reg(COMRAM[1]), I2C_Write2ByteRegister@data(COMRAM[2]), 
		 -> I2C_Write1ByteRegister@reg(COMRAM[1]), I2C_Write1ByteRegister@data(COMRAM[1]), I2C_Read2ByteRegister@reg(COMRAM[1]), I2C_Read2ByteRegister@returnValue(COMRAM[2]), 
		 -> NULL(NULL[0]), I2C_Read1ByteRegister@reg(COMRAM[1]), I2C_Read1ByteRegister@returnValue(COMRAM[1]), 

    I2C_Status.data_ptr	PTR unsigned char  size(2) Largest target is 5
		 -> I2C_Read1ByteRegister@returnValue.data(COMRAM[3]), I2C_Read2ByteRegister@returnValue.data(COMRAM[3]), I2C_Write1ByteRegister@data.data(COMRAM[3]), I2C_Write2ByteRegister@data.data(COMRAM[3]), 
		 -> I2C_ReadDataBlock@reg(COMRAM[1]), I2C_ReadDataBlock@bufferBlock(COMRAM[4]), bufferBlock.data(COMRAM[3]), I2C_Write2ByteRegister@reg(COMRAM[1]), 
		 -> I2C_Write2ByteRegister@data(COMRAM[2]), I2C_Write1ByteRegister@reg(COMRAM[1]), I2C_Write1ByteRegister@data(COMRAM[1]), I2C_Read2ByteRegister@reg(COMRAM[1]), 
		 -> I2C_Read2ByteRegister@returnValue(COMRAM[2]), NULL(NULL[0]), I2C_Read1ByteRegister@reg(COMRAM[1]), I2C_Read1ByteRegister@returnValue(COMRAM[1]), 

    S549$callbackPayload	PTR void [6] size(2) Largest target is 5
		 -> I2C_ReadDataBlock@bufferBlock(COMRAM[4]), I2C_Write2ByteRegister@data(COMRAM[2]), I2C_Write1ByteRegister@data(COMRAM[1]), I2C_Read2ByteRegister@returnValue(COMRAM[2]), 
		 -> NULL(NULL[0]), I2C_Read1ByteRegister@returnValue(COMRAM[1]), 

    I2C_Status.callbackPayload	PTR void [6] size(2) Largest target is 5
		 -> I2C_ReadDataBlock@bufferBlock(COMRAM[4]), I2C_Write2ByteRegister@data(COMRAM[2]), I2C_Write1ByteRegister@data(COMRAM[1]), I2C_Read2ByteRegister@returnValue(COMRAM[2]), 
		 -> NULL(NULL[0]), I2C_Read1ByteRegister@returnValue(COMRAM[1]), 

    S549$callbackTable	PTR FTN(PTR void ,)enum E363[6] size(2) Largest target is 1
		 -> I2C_CallbackReturnReset(), I2C_CallbackReturnStop(), NULL(), rdBlkRegCompleteHandler(), 
		 -> wr2RegCompleteHandler(), wr1RegCompleteHandler(), rd2RegCompleteHandler(), rd1RegCompleteHandler(), 

    I2C_Status.callbackTable	PTR FTN(PTR void ,)enum E363[6] size(2) Largest target is 1
		 -> I2C_CallbackReturnReset(), I2C_CallbackReturnStop(), NULL(), rdBlkRegCompleteHandler(), 
		 -> wr2RegCompleteHandler(), wr1RegCompleteHandler(), rd2RegCompleteHandler(), rd1RegCompleteHandler(), 

    i2c_fsmStateTable	const PTR FTN()enum E3115[16] size(2) Largest target is 1
		 -> I2C_DO_ADDRESS_NACK(), I2C_DO_RESET(), I2C_DO_RX_NACK_RESTART(), I2C_DO_RX_NACK_STOP(), 
		 -> I2C_DO_RX_ACK(), I2C_DO_SEND_STOP(), I2C_DO_SEND_RESTART(), I2C_DO_SEND_RESTART_WRITE(), 
		 -> I2C_DO_SEND_RESTART_READ(), I2C_DO_TX_EMPTY(), I2C_DO_RCEN(), I2C_DO_RX(), 
		 -> I2C_DO_TX(), I2C_DO_SEND_ADR_WRITE(), I2C_DO_SEND_ADR_READ(), I2C_DO_IDLE(), 

    rdBlkRegCompleteHandler@ptr.data	PTR unsigned char  size(2) Largest target is 0

    rdBlkRegCompleteHandler@ptr	PTR void  size(2) Largest target is 5
		 -> I2C_ReadDataBlock@bufferBlock(COMRAM[4]), I2C_Write2ByteRegister@data(COMRAM[2]), I2C_Write1ByteRegister@data(COMRAM[1]), I2C_Read2ByteRegister@returnValue(COMRAM[2]), 
		 -> NULL(NULL[0]), I2C_Read1ByteRegister@returnValue(COMRAM[1]), 

    wr2RegCompleteHandler@ptr	PTR void  size(2) Largest target is 5
		 -> I2C_ReadDataBlock@bufferBlock(COMRAM[4]), I2C_Write2ByteRegister@data(COMRAM[2]), I2C_Write1ByteRegister@data(COMRAM[1]), I2C_Read2ByteRegister@returnValue(COMRAM[2]), 
		 -> NULL(NULL[0]), I2C_Read1ByteRegister@returnValue(COMRAM[1]), 

    wr1RegCompleteHandler@ptr	PTR void  size(2) Largest target is 5
		 -> I2C_ReadDataBlock@bufferBlock(COMRAM[4]), I2C_Write2ByteRegister@data(COMRAM[2]), I2C_Write1ByteRegister@data(COMRAM[1]), I2C_Read2ByteRegister@returnValue(COMRAM[2]), 
		 -> NULL(NULL[0]), I2C_Read1ByteRegister@returnValue(COMRAM[1]), 

    rd2RegCompleteHandler@ptr	PTR void  size(2) Largest target is 5
		 -> I2C_ReadDataBlock@bufferBlock(COMRAM[4]), I2C_Write2ByteRegister@data(COMRAM[2]), I2C_Write1ByteRegister@data(COMRAM[1]), I2C_Read2ByteRegister@returnValue(COMRAM[2]), 
		 -> NULL(NULL[0]), I2C_Read1ByteRegister@returnValue(COMRAM[1]), 

    rd1RegCompleteHandler@ptr	PTR void  size(2) Largest target is 5
		 -> I2C_ReadDataBlock@bufferBlock(COMRAM[4]), I2C_Write2ByteRegister@data(COMRAM[2]), I2C_Write1ByteRegister@data(COMRAM[1]), I2C_Read2ByteRegister@returnValue(COMRAM[2]), 
		 -> NULL(NULL[0]), I2C_Read1ByteRegister@returnValue(COMRAM[1]), 

    S96$data	PTR unsigned char  size(2) Largest target is 0

    bufferBlock.data	PTR unsigned char  size(2) Largest target is 0


Critical Paths under _main in COMRAM

    _main->_EXT_EEPROM_24C02C_read
    _main->_EXT_EEPROM_24C02C_write
    _TEMPSENSOR_TC47_Read->_I2C_Read1ByteRegister
    _EUSART_Initialize->_EUSART_SetErrorHandler
    _EUSART_Initialize->_EUSART_SetFramingErrorHandler
    _EUSART_Initialize->_EUSART_SetOverrunErrorHandler
    _RTC_DS1307_print->_RTC_DS1307_receive_values
    _RTC_DS1307_receive_values->_I2C_Read1ByteRegister
    _EUSART_Write_String->_EUSART_Write
    _BCD_UART_Print->_EUSART_Write
    _EXT_EEPROM_24C02C_write->_I2C_Write1ByteRegister
    _EXT_EEPROM_24C02C_read->_I2C_Read1ByteRegister
    _I2C_SetAddressNackCallback->_I2C_SetCallback
    _I2C_MasterWrite->_I2C_MasterOperation
    _I2C_Poller->_I2C_MasterFsm
    _I2C_MasterFsm->_I2C_DO_ADDRESS_NACK
    _I2C_MasterFsm->_I2C_DO_RX
    _I2C_MasterFsm->_I2C_DO_TX
    _I2C_MasterFsm->_I2C_DO_TX_EMPTY
    _I2C_DO_TX_EMPTY->_I2C_CallbackReturnReset
    _I2C_DO_TX_EMPTY->_I2C_CallbackReturnStop
    _I2C_DO_TX_EMPTY->_rd1RegCompleteHandler
    _I2C_DO_TX_EMPTY->_rd2RegCompleteHandler
    _I2C_DO_TX_EMPTY->_rdBlkRegCompleteHandler
    _I2C_DO_TX_EMPTY->_wr1RegCompleteHandler
    _I2C_DO_TX_EMPTY->_wr2RegCompleteHandler
    _I2C_DO_TX->_I2C_CallbackReturnReset
    _I2C_DO_TX->_I2C_CallbackReturnStop
    _I2C_DO_TX->_rd1RegCompleteHandler
    _I2C_DO_TX->_rd2RegCompleteHandler
    _I2C_DO_TX->_rdBlkRegCompleteHandler
    _I2C_DO_TX->_wr1RegCompleteHandler
    _I2C_DO_TX->_wr2RegCompleteHandler
    _I2C_DO_SEND_ADR_WRITE->_I2C_MasterSendTxData
    _I2C_DO_RX->_I2C_CallbackReturnReset
    _I2C_DO_RX->_I2C_CallbackReturnStop
    _I2C_DO_RX->_rd1RegCompleteHandler
    _I2C_DO_RX->_rd2RegCompleteHandler
    _I2C_DO_RX->_rdBlkRegCompleteHandler
    _I2C_DO_RX->_wr1RegCompleteHandler
    _I2C_DO_RX->_wr2RegCompleteHandler
    _I2C_DO_ADDRESS_NACK->_I2C_CallbackReturnReset
    _I2C_DO_ADDRESS_NACK->_I2C_CallbackReturnStop
    _I2C_DO_ADDRESS_NACK->_rd1RegCompleteHandler
    _I2C_DO_ADDRESS_NACK->_rd2RegCompleteHandler
    _I2C_DO_ADDRESS_NACK->_rdBlkRegCompleteHandler
    _I2C_DO_ADDRESS_NACK->_wr1RegCompleteHandler
    _I2C_DO_ADDRESS_NACK->_wr2RegCompleteHandler
    _wr2RegCompleteHandler->_I2C_SetDataCompleteCallback
    _wr1RegCompleteHandler->_I2C_SetDataCompleteCallback
    _rdBlkRegCompleteHandler->_I2C_SetDataCompleteCallback
    _rd2RegCompleteHandler->_I2C_SetDataCompleteCallback
    _rd1RegCompleteHandler->_I2C_SetDataCompleteCallback
    _I2C_SetDataCompleteCallback->_I2C_SetCallback

Critical Paths under _main in BANK0

    None.

Critical Paths under _main in BANK1

    None.

Critical Paths under _main in BANK2

    None.

Critical Paths under _main in BANK3

    None.

Critical Paths under _main in BANK4

    None.

Critical Paths under _main in BANK5

    None.

Critical Paths under _main in BANK6

    None.

Critical Paths under _main in BANK7

    None.

Critical Paths under _main in BANK8

    None.

Critical Paths under _main in BANK9

    None.

Critical Paths under _main in BANK10

    None.

Critical Paths under _main in BANK11

    None.

Critical Paths under _main in BANK12

    None.

Critical Paths under _main in BANK13

    None.

Critical Paths under _main in BANK14

    None.

Critical Paths under _main in BANK15

    None.

Call Graph Tables:

 ---------------------------------------------------------------------------------
 (Depth) Function   	        Calls       Base Space   Used Autos Params    Refs
 ---------------------------------------------------------------------------------
 (0) _main                                                 4     4      0  477825
                                             23 COMRAM     4     4      0
             _EXT_EEPROM_24C02C_read
            _EXT_EEPROM_24C02C_write
             _I2C_Write1ByteRegister
                   _RTC_DS1307_print
                  _SYSTEM_Initialize
               _TEMPSENSOR_TC47_Read
 ---------------------------------------------------------------------------------
 (1) _TEMPSENSOR_TC47_Read                                 2     2      0   95411
                                             20 COMRAM     2     2      0
              _I2C_Read1ByteRegister
 ---------------------------------------------------------------------------------
 (1) _SYSTEM_Initialize                                    0     0      0     294
                  _EUSART_Initialize
                     _I2C_Initialize
              _OSCILLATOR_Initialize
             _PIN_MANAGER_Initialize
 ---------------------------------------------------------------------------------
 (2) _PIN_MANAGER_Initialize                               0     0      0       0
 ---------------------------------------------------------------------------------
 (2) _OSCILLATOR_Initialize                                0     0      0       0
 ---------------------------------------------------------------------------------
 (2) _I2C_Initialize                                       0     0      0       0
 ---------------------------------------------------------------------------------
 (2) _EUSART_Initialize                                    0     0      0     294
             _EUSART_SetErrorHandler
      _EUSART_SetFramingErrorHandler
      _EUSART_SetOverrunErrorHandler
 ---------------------------------------------------------------------------------
 (3) _EUSART_SetOverrunErrorHandler                        2     0      2      98
                                              0 COMRAM     2     0      2
 ---------------------------------------------------------------------------------
 (3) _EUSART_SetFramingErrorHandler                        2     0      2      98
                                              0 COMRAM     2     0      2
 ---------------------------------------------------------------------------------
 (3) _EUSART_SetErrorHandler                               2     0      2      98
                                              0 COMRAM     2     0      2
 ---------------------------------------------------------------------------------
 (1) _RTC_DS1307_print                                     1     1      0   95943
                                             21 COMRAM     1     1      0
                     _BCD_UART_Print
                       _EUSART_Write
                _EUSART_Write_String
          _RTC_DS1307_receive_values
 ---------------------------------------------------------------------------------
 (2) _RTC_DS1307_receive_values                            1     1      0   95497
                                             20 COMRAM     1     1      0
              _I2C_Read1ByteRegister
 ---------------------------------------------------------------------------------
 (2) _EUSART_Write_String                                  2     0      2     364
                                              1 COMRAM     2     0      2
                       _EUSART_Write
 ---------------------------------------------------------------------------------
 (2) _BCD_UART_Print                                       1     1      0      45
                                              1 COMRAM     1     1      0
                       _EUSART_Write
 ---------------------------------------------------------------------------------
 (3) _EUSART_Write                                         1     1      0      15
                                              0 COMRAM     1     1      0
 ---------------------------------------------------------------------------------
 (1) _EXT_EEPROM_24C02C_write                              3     1      2   95408
                                             20 COMRAM     3     1      2
             _I2C_Write1ByteRegister
 ---------------------------------------------------------------------------------
 (1) _I2C_Write1ByteRegister                               3     1      2   95190
                                             17 COMRAM     3     1      2
                          _I2C_Close
                    _I2C_MasterWrite
                           _I2C_Open
         _I2C_SetAddressNackCallback
                      _I2C_SetBuffer
        _I2C_SetDataCompleteCallback
 ---------------------------------------------------------------------------------
 (1) _EXT_EEPROM_24C02C_read                               3     2      1   95509
                                             20 COMRAM     3     2      1
              _I2C_Read1ByteRegister
 ---------------------------------------------------------------------------------
 (2) _I2C_Read1ByteRegister                                3     2      1   95365
                                             17 COMRAM     3     2      1
                          _I2C_Close
                    _I2C_MasterWrite
                           _I2C_Open
         _I2C_SetAddressNackCallback
                      _I2C_SetBuffer
        _I2C_SetDataCompleteCallback
 ---------------------------------------------------------------------------------
 (3) _I2C_SetAddressNackCallback                           4     0      4    1870
                                              5 COMRAM     4     0      4
                    _I2C_SetCallback
 ---------------------------------------------------------------------------------
 (3) _I2C_Open                                             2     2      0      30
                                              0 COMRAM     2     2      0
                 _I2C_MasterClearIrq
                     _I2C_MasterOpen
 ---------------------------------------------------------------------------------
 (4) _I2C_MasterOpen                                       0     0      0       0
 ---------------------------------------------------------------------------------
 (3) _I2C_MasterWrite                                      0     0      0   88399
                _I2C_MasterOperation
 ---------------------------------------------------------------------------------
 (4) _I2C_MasterOperation                                  2     2      0   88399
                                             15 COMRAM     2     2      0
                    _I2C_MasterStart
                         _I2C_Poller
 ---------------------------------------------------------------------------------
 (5) _I2C_Poller                                           0     0      0   88353
                      _I2C_MasterFsm
             _I2C_MasterWaitForEvent
 ---------------------------------------------------------------------------------
 (6) _I2C_MasterWaitForEvent                               0     0      0       0
 ---------------------------------------------------------------------------------
 (6) _I2C_MasterFsm                                        2     2      0   88353
                                             13 COMRAM     2     2      0
                _I2C_DO_ADDRESS_NACK *
                        _I2C_DO_IDLE *
                        _I2C_DO_RCEN *
                       _I2C_DO_RESET *
                          _I2C_DO_RX *
                      _I2C_DO_RX_ACK *
             _I2C_DO_RX_NACK_RESTART *
                _I2C_DO_RX_NACK_STOP *
               _I2C_DO_SEND_ADR_READ *
              _I2C_DO_SEND_ADR_WRITE *
                _I2C_DO_SEND_RESTART *
           _I2C_DO_SEND_RESTART_READ *
          _I2C_DO_SEND_RESTART_WRITE *
                   _I2C_DO_SEND_STOP *
                          _I2C_DO_TX *
                    _I2C_DO_TX_EMPTY *
                 _I2C_MasterClearIrq
                   _I2C_MasterIsNack
 ---------------------------------------------------------------------------------
 (7) _I2C_DO_TX_EMPTY                                      2     2      0   22077
                                             11 COMRAM     2     2      0
                                NULL *
            _I2C_CallbackReturnReset *
             _I2C_CallbackReturnStop *
                _I2C_DO_SEND_RESTART
                   _I2C_DO_SEND_STOP
                   _I2C_MasterSetIrq
              _rd1RegCompleteHandler *
              _rd2RegCompleteHandler *
            _rdBlkRegCompleteHandler *
              _wr1RegCompleteHandler *
              _wr2RegCompleteHandler *
 ---------------------------------------------------------------------------------
 (8) _I2C_MasterSetIrq                                     0     0      0       0
 ---------------------------------------------------------------------------------
 (7) _I2C_DO_TX                                            2     2      0   22092
                                             11 COMRAM     2     2      0
                                NULL *
            _I2C_CallbackReturnReset *
             _I2C_CallbackReturnStop *
           _I2C_DO_SEND_RESTART_READ
          _I2C_DO_SEND_RESTART_WRITE
                   _I2C_DO_SEND_STOP
                   _I2C_MasterIsNack
               _I2C_MasterSendTxData
              _rd1RegCompleteHandler *
              _rd2RegCompleteHandler *
            _rdBlkRegCompleteHandler *
              _wr1RegCompleteHandler *
              _wr2RegCompleteHandler *
 ---------------------------------------------------------------------------------
 (7) _I2C_MasterIsNack                                     0     0      0       0
 ---------------------------------------------------------------------------------
 (8) _I2C_DO_SEND_RESTART_WRITE                            0     0      0       0
            _I2C_MasterEnableRestart
 ---------------------------------------------------------------------------------
 (8) _I2C_DO_SEND_RESTART_READ                             0     0      0       0
            _I2C_MasterEnableRestart
 ---------------------------------------------------------------------------------
 (7) _I2C_DO_SEND_ADR_WRITE                                0     0      0      15
               _I2C_MasterSendTxData
 ---------------------------------------------------------------------------------
 (7) _I2C_DO_SEND_ADR_READ                                 0     0      0      15
               _I2C_MasterSendTxData
 ---------------------------------------------------------------------------------
 (8) _I2C_MasterSendTxData                                 1     1      0      15
                                              0 COMRAM     1     1      0
 ---------------------------------------------------------------------------------
 (7) _I2C_DO_RX_ACK                                        0     0      0       0
                  _I2C_MasterSendAck
 ---------------------------------------------------------------------------------
 (7) _I2C_DO_RX                                            2     2      0   22077
                                             11 COMRAM     2     2      0
                                NULL *
            _I2C_CallbackReturnReset *
             _I2C_CallbackReturnStop *
             _I2C_DO_RX_NACK_RESTART
                _I2C_DO_RX_NACK_STOP
                _I2C_MasterGetRxData
                  _I2C_MasterSendAck
              _rd1RegCompleteHandler *
              _rd2RegCompleteHandler *
            _rdBlkRegCompleteHandler *
              _wr1RegCompleteHandler *
              _wr2RegCompleteHandler *
 ---------------------------------------------------------------------------------
 (8) _I2C_MasterSendAck                                    0     0      0       0
 ---------------------------------------------------------------------------------
 (8) _I2C_MasterGetRxData                                  0     0      0       0
 ---------------------------------------------------------------------------------
 (7) _I2C_DO_RX_NACK_STOP                                  0     0      0       0
                 _I2C_MasterSendNack
 ---------------------------------------------------------------------------------
 (7) _I2C_DO_RX_NACK_RESTART                               0     0      0       0
                 _I2C_MasterSendNack
 ---------------------------------------------------------------------------------
 (8) _I2C_MasterSendNack                                   0     0      0       0
 ---------------------------------------------------------------------------------
 (7) _I2C_DO_RESET                                         0     0      0       0
 ---------------------------------------------------------------------------------
 (7) _I2C_DO_RCEN                                          0     0      0       0
                  _I2C_MasterStartRx
 ---------------------------------------------------------------------------------
 (8) _I2C_MasterStartRx                                    0     0      0       0
 ---------------------------------------------------------------------------------
 (7) _I2C_DO_IDLE                                          0     0      0       0
 ---------------------------------------------------------------------------------
 (7) _I2C_DO_ADDRESS_NACK                                  2     2      0   22077
                                             11 COMRAM     2     2      0
                                NULL *
            _I2C_CallbackReturnReset *
             _I2C_CallbackReturnStop *
                _I2C_DO_SEND_RESTART
                   _I2C_DO_SEND_STOP
              _rd1RegCompleteHandler *
              _rd2RegCompleteHandler *
            _rdBlkRegCompleteHandler *
              _wr1RegCompleteHandler *
              _wr2RegCompleteHandler *
 ---------------------------------------------------------------------------------
 (8) _wr2RegCompleteHandler                                2     0      2    4368
                                              9 COMRAM     2     0      2
                      _I2C_SetBuffer
        _I2C_SetDataCompleteCallback
 ---------------------------------------------------------------------------------
 (8) _wr1RegCompleteHandler                                2     0      2    4368
                                              9 COMRAM     2     0      2
                      _I2C_SetBuffer
        _I2C_SetDataCompleteCallback
 ---------------------------------------------------------------------------------
 (8) _rdBlkRegCompleteHandler                              2     0      2    4390
                                              9 COMRAM     2     0      2
                      _I2C_SetBuffer
        _I2C_SetDataCompleteCallback
 ---------------------------------------------------------------------------------
 (8) _rd2RegCompleteHandler                                2     0      2    4368
                                              9 COMRAM     2     0      2
                      _I2C_SetBuffer
        _I2C_SetDataCompleteCallback
 ---------------------------------------------------------------------------------
 (8) _rd1RegCompleteHandler                                2     0      2    4368
                                              9 COMRAM     2     0      2
                      _I2C_SetBuffer
        _I2C_SetDataCompleteCallback
 ---------------------------------------------------------------------------------
 (3) _I2C_SetDataCompleteCallback                          4     0      4    2478
                                              5 COMRAM     4     0      4
                    _I2C_SetCallback
 ---------------------------------------------------------------------------------
 (4) _I2C_SetCallback                                      5     1      4     914
                                              0 COMRAM     5     1      4
 ---------------------------------------------------------------------------------
 (3) _I2C_SetBuffer                                        4     0      4    1868
                                              0 COMRAM     4     0      4
 ---------------------------------------------------------------------------------
 (8) _I2C_DO_SEND_STOP                                     0     0      0       0
                     _I2C_MasterStop
 ---------------------------------------------------------------------------------
 (9) _I2C_MasterStop                                       0     0      0       0
 ---------------------------------------------------------------------------------
 (8) _I2C_DO_SEND_RESTART                                  0     0      0       0
            _I2C_MasterEnableRestart
 ---------------------------------------------------------------------------------
 (9) _I2C_MasterEnableRestart                              0     0      0       0
 ---------------------------------------------------------------------------------
 (8) _I2C_CallbackReturnStop                               2     0      2       0
                                              9 COMRAM     2     0      2
 ---------------------------------------------------------------------------------
 (8) _I2C_CallbackReturnReset                              2     0      2     215
                                              9 COMRAM     2     0      2
 ---------------------------------------------------------------------------------
 (8) NULL(Fake)                                            2     0      2       0
 ---------------------------------------------------------------------------------
 (5) _I2C_MasterStart                                      0     0      0       0
 ---------------------------------------------------------------------------------
 (3) _I2C_Close                                            1     1      0      15
                                              0 COMRAM     1     1      0
                 _I2C_MasterClearIrq
                    _I2C_MasterClose
               _I2C_MasterDisableIrq
 ---------------------------------------------------------------------------------
 (4) _I2C_MasterDisableIrq                                 0     0      0       0
 ---------------------------------------------------------------------------------
 (4) _I2C_MasterClose                                      0     0      0       0
 ---------------------------------------------------------------------------------
 (4) _I2C_MasterClearIrq                                   0     0      0       0
 ---------------------------------------------------------------------------------
 Estimated maximum stack depth 9
 ---------------------------------------------------------------------------------

 Call Graph Graphs:

 _main (ROOT)
   _EXT_EEPROM_24C02C_read
     _I2C_Read1ByteRegister
       _I2C_Close
         _I2C_MasterClearIrq
         _I2C_MasterClose
         _I2C_MasterDisableIrq
       _I2C_MasterWrite
         _I2C_MasterOperation
           _I2C_MasterStart
           _I2C_Poller
             _I2C_MasterFsm
               _I2C_DO_ADDRESS_NACK *
                 NULL(Fake) *
                 _I2C_CallbackReturnReset *
                 _I2C_CallbackReturnStop *
                 _I2C_DO_SEND_RESTART *
                   _I2C_MasterEnableRestart
                 _I2C_DO_SEND_STOP *
                   _I2C_MasterStop
                 _rd1RegCompleteHandler *
                   _I2C_SetBuffer
                   _I2C_SetDataCompleteCallback
                     _I2C_SetCallback
                 _rd2RegCompleteHandler *
                   _I2C_SetBuffer
                   _I2C_SetDataCompleteCallback
                 _rdBlkRegCompleteHandler *
                   _I2C_SetBuffer
                   _I2C_SetDataCompleteCallback
                 _wr1RegCompleteHandler *
                   _I2C_SetBuffer
                   _I2C_SetDataCompleteCallback
                 _wr2RegCompleteHandler *
                   _I2C_SetBuffer
                   _I2C_SetDataCompleteCallback
               _I2C_DO_IDLE *
               _I2C_DO_RCEN *
                 _I2C_MasterStartRx
               _I2C_DO_RESET *
               _I2C_DO_RX *
                 NULL(Fake) *
                 _I2C_CallbackReturnReset *
                 _I2C_CallbackReturnStop *
                 _I2C_DO_RX_NACK_RESTART *
                   _I2C_MasterSendNack
                 _I2C_DO_RX_NACK_STOP *
                   _I2C_MasterSendNack
                 _I2C_MasterGetRxData *
                 _I2C_MasterSendAck *
                 _rd1RegCompleteHandler *
                 _rd2RegCompleteHandler *
                 _rdBlkRegCompleteHandler *
                 _wr1RegCompleteHandler *
                 _wr2RegCompleteHandler *
               _I2C_DO_RX_ACK *
                 _I2C_MasterSendAck
               _I2C_DO_RX_NACK_RESTART *
               _I2C_DO_RX_NACK_STOP *
               _I2C_DO_SEND_ADR_READ *
                 _I2C_MasterSendTxData
               _I2C_DO_SEND_ADR_WRITE *
                 _I2C_MasterSendTxData
               _I2C_DO_SEND_RESTART *
               _I2C_DO_SEND_RESTART_READ *
                 _I2C_MasterEnableRestart
               _I2C_DO_SEND_RESTART_WRITE *
                 _I2C_MasterEnableRestart
               _I2C_DO_SEND_STOP *
               _I2C_DO_TX *
                 NULL(Fake) *
                 _I2C_CallbackReturnReset *
                 _I2C_CallbackReturnStop *
                 _I2C_DO_SEND_RESTART_READ *
                 _I2C_DO_SEND_RESTART_WRITE *
                 _I2C_DO_SEND_STOP *
                 _I2C_MasterIsNack *
                 _I2C_MasterSendTxData *
                 _rd1RegCompleteHandler *
                 _rd2RegCompleteHandler *
                 _rdBlkRegCompleteHandler *
                 _wr1RegCompleteHandler *
                 _wr2RegCompleteHandler *
               _I2C_DO_TX_EMPTY *
                 NULL(Fake) *
                 _I2C_CallbackReturnReset *
                 _I2C_CallbackReturnStop *
                 _I2C_DO_SEND_RESTART *
                 _I2C_DO_SEND_STOP *
                 _I2C_MasterSetIrq *
                 _rd1RegCompleteHandler *
                 _rd2RegCompleteHandler *
                 _rdBlkRegCompleteHandler *
                 _wr1RegCompleteHandler *
                 _wr2RegCompleteHandler *
               _I2C_MasterClearIrq *
               _I2C_MasterIsNack *
             _I2C_MasterWaitForEvent
       _I2C_Open
         _I2C_MasterClearIrq
         _I2C_MasterOpen
       _I2C_SetAddressNackCallback
         _I2C_SetCallback
       _I2C_SetBuffer
       _I2C_SetDataCompleteCallback
   _EXT_EEPROM_24C02C_write
     _I2C_Write1ByteRegister
       _I2C_Close
       _I2C_MasterWrite
       _I2C_Open
       _I2C_SetAddressNackCallback
       _I2C_SetBuffer
       _I2C_SetDataCompleteCallback
   _I2C_Write1ByteRegister
   _RTC_DS1307_print
     _BCD_UART_Print
       _EUSART_Write
     _EUSART_Write
     _EUSART_Write_String
       _EUSART_Write
     _RTC_DS1307_receive_values
       _I2C_Read1ByteRegister
   _SYSTEM_Initialize
     _EUSART_Initialize
       _EUSART_SetErrorHandler
       _EUSART_SetFramingErrorHandler
       _EUSART_SetOverrunErrorHandler
     _I2C_Initialize
     _OSCILLATOR_Initialize
     _PIN_MANAGER_Initialize
   _TEMPSENSOR_TC47_Read
     _I2C_Read1ByteRegister

 Address spaces:
Name               Size   Autos  Total    Cost      Usage
BIGRAM             F5F      0       0      51        0.0%
EEDATA             400      0       0       0        0.0%
BITBANK14          100      0       0      32        0.0%
BANK14             100      0       0      33        0.0%
BITBANK13          100      0       0      30        0.0%
BANK13             100      0       0      31        0.0%
BITBANK12          100      0       0      28        0.0%
BANK12             100      0       0      29        0.0%
BITBANK11          100      0       0      26        0.0%
BANK11             100      0       0      27        0.0%
BITBANK10          100      0       0      24        0.0%
BANK10             100      0       0      25        0.0%
BITBANK9           100      0       0      22        0.0%
BANK9              100      0       0      23        0.0%
BITBANK8           100      0       0      20        0.0%
BANK8              100      0       0      21        0.0%
BITBANK7           100      0       0      18        0.0%
BANK7              100      0       0      19        0.0%
BITBANK6           100      0       0      16        0.0%
BANK6              100      0       0      17        0.0%
BITBANK5           100      0       0      14        0.0%
BANK5              100      0       0      15        0.0%
BITBANK4           100      0       0      12        0.0%
BANK4              100      0       0      13        0.0%
BITBANK3           100      0       0      10        0.0%
BANK3              100      0       0      11        0.0%
BITBANK2           100      0       0       8        0.0%
BANK2              100      0       0       9        0.0%
BITBANK1           100      0       0       6        0.0%
BANK1              100      0       0       7        0.0%
BITBANK0            A0      0       0       4        0.0%
BANK0               A0      0       0       5        0.0%
BITBANK15           60      0       0      34        0.0%
BANK15              60      0       0      35        0.0%
BITCOMRAM           5F      0       0       0        0.0%
COMRAM              5F     1B      4C       1       80.0%
BITBIGSFRllhhh      1D      0       0      38        0.0%
BITBIGSFRllllll     1C      0       0      49        0.0%
BITBIGSFRllhhll      C      0       0      40        0.0%
BITBIGSFRllhhlh      9      0       0      39        0.0%
BITBIGSFRllllll      9      0       0      47        0.0%
BITBIGSFRllhhll      7      0       0      41        0.0%
BITBIGSFRh           7      0       0      36        0.0%
BITBIGSFRllllhh      4      0       0      45        0.0%
BITBIGSFRllllhl      4      0       0      46        0.0%
BITBIGSFRlllh        4      0       0      42        0.0%
BITBIGSFRllllhh      2      0       0      43        0.0%
BITBIGSFRlh          2      0       0      37        0.0%
BITBIGSFRllllhh      1      0       0      44        0.0%
BITBIGSFRllllll      1      0       0      48        0.0%
BIGSFR               0      0       0     200        0.0%
BITSFR               0      0       0     200        0.0%
SFR                  0      0       0     200        0.0%
STACK                0      0       0       2        0.0%
NULL                 0      0       0       0        0.0%
ABS                  0      0      4C      50        0.0%
DATA                 0      0      4C       3        0.0%
CODE                 0      0       0       0        0.0%


Microchip Technology PIC18 Macro Assembler V2.41 build 20230208172133 
Symbol Table                                                                                   Fri Oct 13 17:17:55 2023

                       ??_I2C_DO_SEND_ADR_READ 002C                        ?_EXT_EEPROM_24C02C_read 0040  
                      ??_I2C_DO_SEND_ADR_WRITE 002D                                    _SSPSTATbits 0FC7  
                                           l33 14F4                                             l51 1562  
                                           l90 17DC                                             l93 17B0  
                                           l96 1784                                             l99 1808  
                                           u30 1930                                             u31 192A  
                                           u36 1932                       ?_EXT_EEPROM_24C02C_write 0040  
                        ??_I2C_DO_SEND_RESTART 002C                                            l102 16B0  
                                          l200 1758                                            l221 19B0  
                                          l400 10EE                                            l218 1956  
                                          l500 1A68                                            l332 121E  
                                          l413 1124                                            l414 1192  
                                          l342 1670                                            l503 1A48  
                                          l431 1394                                            l336 1832  
                                          l328 191E                                            l521 1A58  
                                          l425 19E2                                            l601 16EE  
                                          l530 1A40                                            l506 1A34  
                                          l355 1876                                            l515 1A4C  
                                          l524 1932                                            l452 1A24  
                                          l348 19F4                                            l364 18DC  
                                          l509 1A5C                                            l461 1A0C  
                                          l381 1892                                            l518 1A60  
                                          l358 18F4                                            l470 19D8  
                                          l375 1480                                            l527 1A3A  
                                          l551 1A44                                            l391 19A6  
                                          l455 1A1C                                            l703 140A  
                                          l464 1A04                                            l545 1A64  
                                          l449 1A2C                                            l385 15CA  
                                          l625 18F8                                            l394 1998  
                                          l458 1A14                                            l554 197C  
                                          l634 1728                                            l706 131A  
                                          l467 19FC                                            l548 1A6C  
                                          l484 1A54                                            l388 19EC  
                                          l476 162E                                            l628 190A  
                                          l652 19CE                                            l716 18AC  
                                          l397 10BA                                            l709 18C4  
                                          l558 198A                                            l646 19C4  
                                          l487 1A50                                            l497 1854  
                                          l649 19BA                                            l683 1968  
                                          l686 197A                                            u110 198A  
                                          u111 1986                                            u200 181C  
                                          u201 1818                                            u230 1906  
                                          u231 1902                                            u160 1842  
                                          u161 183E                                            u190 11A8  
                                          u191 11A4                                            u600 111A  
                                          u601 1116                                            u700 149E  
                                          u701 149A                                            u550 1420  
                                          u710 14F2                                            u551 141C  
                                          u711 14EE                                            u560 1864  
                                          u640 1576                                            u720 150E  
                                          u561 1860                                            u641 1572  
                                          u721 150A                                            u570 1046  
                                          u618 1148                                            u650 158A  
                                          u730 1562                                            u571 1042  
                                          u619 115A                                            u651 1586  
                                          u731 155E                                            u628 134A  
                                          u740 1728                                            u629 135C  
                                          u741 1724                                            u590 10E6  
                                          u638 15F4                                            u670 1892  
                                          u591 10E2                                            u639 1606  
                                          u671 188E                                            u680 1644  
                                          u681 1640                                            u690 165A  
                                          u691 1656                                            u907 12B0  
                                          u588 1070                                            u668 15B6  
                                          u589 1082                                            u669 15C8  
                                          u917 12C4                                            u870 125E  
                                          u927 12D8                                            u871 125A  
                                          u937 12EC                                            u947 1300  
                                          u957 1314                                            u887 1288  
                                          u897 18A4                         fp__I2C_DO_RX_NACK_STOP 0000  
                       _I2C_MasterWaitForEvent 197C                 ?_EUSART_SetFramingErrorHandler 002C  
                                          prod 0FF3                                            tosl 0FFD  
                                          wreg 0FE8                   ??_I2C_SetAddressNackCallback 0035  
                       _I2C_Write1ByteRegister 14F6                       ??_I2C_CallbackReturnStop 0037  
                                 _I2C_DO_RESET 19D0                        ??_rd2RegCompleteHandler 0037  
                                         l1410 1A56                                           l2300 1874  
                                         l1412 1A3C                                           l1500 1A1A  
                                         l2302 17B2                                           l2310 1786  
                                         l1510 1A4E                                           l1408 1A5A  
                                         l2304 17C6                                           l2312 179A  
                                         l2320 176E                                           l1504 1A42  
                                         l1520 19EA                                           l2400 113A  
                                         l1514 1A6A                                           l2330 1806  
                                         l2306 17DA                                           l2314 17AE  
                                         l2322 1782                                           l1506 1A52  
                                         l1700 1A62                                           l2412 132A  
                                         l1516 19E4                                           l1524 199A  
                                         l1532 198C                                           l1604 19DA  
                                         l1460 1A26                                           l2500 149E  
                                         l1702 1A66                                           l2326 17DE  
                                         l2318 175A                                           l2334 1672  
                                         l1454 1920                                           l2414 132E  
                                         l2406 131C                                           l1518 19E6  
                                         l1526 199C                                           l1534 198E  
                                         l2350 1052                                           l2342 1032  
                                         l1606 19DC                                           l1462 1A2A  
                                         l2430 15CC                                           l2510 14F2  
                                         l2502 14B2                                           l2328 17F2  
                                         l2336 169A                                           l2408 1322  
                                         l2424 133C                                           l1528 19A4  
                                         l1536 1996                                           l2360 1062  
                                         l1608 19E0                                           l1472 1A0E  
                                         l2432 15CE                                           l2504 14C6  
                                         l2520 14F8                                           l2600 13F2  
                                         l2290 1454                                           l2338 16AE  
                                         l1482 1A36                                           l1458 1A30  
                                         l2418 1334                                           l2362 10BC  
                                         l2354 105A                                           l2346 104A  
                                         l1466 1A1E                                           l1474 1A12  
                                         l1490 19FE                                           l1642 19D0  
                                         l2434 15D6                                           l2450 1564  
                                         l1730 11A8                                           l2506 14DA  
                                         l2530 154A                                           l2522 14F8  
                                         l2602 13F8                                           l2514 19BC  
                                         l2610 18A2                                           l2292 18DE  
                                         l2364 10CE                                           l2380 1102  
                                         l1468 1A22                                           l1636 1A06  
                                         l1492 1A02                                           l1484 19F6  
                                         l1644 19D2                                           l2444 15E6  
                                         l2452 1568                                           l2460 1878  
                                         l1740 11B6                                           l1732 11AC  
                                         l2508 14DE                                           l2620 1978  
                                         l2532 154E                                           l2524 150E  
                                         l1820 1906                                           l2604 13FE  
                                         l2516 19B2                                           l2540 16DE  
                                         l2612 18AA                                           l2294 1856  
                                         l2286 140E                                           l1478 1A46  
                                         l2366 10E6                                           l2390 112A  
                                         l2382 111A                                           l1638 1A0A  
                                         l1486 19FA                                           l1646 19D6  
                                         l2438 15DE                                           l2454 1576  
                                         l2462 187C                                           l2470 1636  
                                         l1750 11D8                                           l1742 11BE  
                                         l1734 11AE                                           l1726 1196  
                                         l2526 1522                                           l2550 170A  
                                         l2518 19C6                                           l2542 16EA  
                                         l2534 16B2                                           l2606 1896  
                                         l2296 1864                                           l2288 1420  
                                         l1496 1A4A                                           l2368 10EC  
                                         l2384 111E                                           l2376 10F0  
                                         l2456 158A                                           l2464 1880  
                                         l2480 1662                                           l2472 1644  
                                         l1760 1200                                           l1752 11E0  
                                         l1744 11C0                                           l1736 11B0  
                                         l1728 119A                                           l2616 196C  
                                         l2528 1536                                           l2544 16F0  
                                         l2560 12D6                                           l2552 12A2  
                                         l2536 16C6                                           l1840 1744  
                                         l2608 1896                                           l1682 1A5E  
                                         l2298 186C                                           l2394 1132  
                                         l2378 10FE                                           l1498 1A16  
                                         l2458 158E                                           l2466 1884  
                                         l2482 1666                                           l2474 1646  
                                         l1762 1208                                           l1754 11E8  
                                         l1746 11C8                                           l1738 11B2  
                                         l1770 121C                                           l2490 18C6  
                                         l2618 196C                                           l1818 18F8  
                                         l2546 16F4                                           l2562 12EA  
                                         l2554 12AE                                           l2538 16D2  
                                         l1850 191C                                           l1842 174A  
                                         l2570 1946                                           l2730 1232  
                                         l2722 1220                                           l1780 180A  
                                         l2484 166A                                           l2476 164A  
                                         l2468 1632                                           l2492 19EE  
                                         l1692 1834                                           l1764 1210  
                                         l1756 11F0                                           l1748 11D0  
                                         l2548 1706                                           l2564 12F2  
                                         l2556 12B6                                           l2580 13AA  
                                         l1852 19A8                                           l1844 174C  
                                         l1836 172A                                           l2572 1952  
                                         l2740 1270                                           l2732 1238  
                                         l2724 1224                                           l1790 1830  
                                         l1782 180E                                           l2478 165A  
                                         l2486 166E                                           l1694 1842  
                                         l1766 1214                                           l1758 11F8  
                                         l2574 195A                                           l2566 1306  
                                         l2558 12CA                                           l2590 13C8  
                                         l2582 13B0                                           l1846 1756  
                                         l1838 1742                                           l2742 127E  
                                         l2734 1240                                           l2726 1224  
                                         l1784 181C                                           l2760 1618  
                                         l1696 1852                                           l1768 1218  
                                         l2496 1484                                           l2568 1312  
                                         l2592 13D4                                           l2584 13B6  
                                         l2576 1398                                           l1848 190C  
                                         l2736 124C                                           l2728 1224  
                                         l1786 1820                                           l2762 116C  
                                         l2498 1488                                           l1890 18B0  
                                         l2594 13E0                                           l2586 13BC  
                                         l2578 139E                                           l2738 125E  
                                         l1788 182C                                           l2764 1094  
                                         l2596 13E6                                           l2588 13C2  
                                         l2766 136E                                           l2598 13EC  
                                         STR_1 1028                                           STR_2 102F  
                                         STR_3 1021                                           STR_4 102F  
                                         _LATA 0F89                                           _LATB 0F8A  
                                         _LATC 0F8B                                           _LATD 0F8C  
                                         _LATE 0F8D                                           _WPUB 0F7C  
                      ??_wr2RegCompleteHandler 0037                                           _main 1220  
                     ?_I2C_CallbackReturnReset 0035                                           fsr2h 0FDA  
                                         indf2 0FDF                                           fsr2l 0FD9  
                             __end_of_I2C_Open 1220                                           prodh 0FF4  
                                         prodl 0FF3                                           start 0000  
               __end_of_EXT_EEPROM_24C02C_read 197C                   fp__I2C_DO_SEND_RESTART_WRITE 0000  
                                 ___param_bank 0000                               ?_I2C_MasterClose 002C  
                                ?_EUSART_Write 002C                               ?_I2C_MasterStart 002C  
                                _I2C_DO_RX_ACK 1A06                               ?_I2C_MasterWrite 002C  
                __end_of_OSCILLATOR_Initialize 19B2                                          ?_main 002C  
                                        _EEADR 0FA9                                          _ANSEL 0F7E  
                        _I2C_Read1ByteRegister 1482                                          _RCREG 0FAE  
                                        _RCSTA 0FAB                                          _SPBRG 0FAF  
                            ??_I2C_DO_TX_EMPTY 0037                                          _TRISA 0F92  
                                        _TRISB 0F93                                          _TRISC 0F94  
                                        _TRISD 0F95                                          _TRISE 0F96  
       EXT_EEPROM_24C02C_read@location_address 0040                                          _TXREG 0FAD  
                                        _TXSTA 0FAC                              __end_of_I2C_DO_RX 1194  
                            __end_of_I2C_DO_TX 10F0                              __end_of_I2C_Close 1834  
               I2C_MasterOperation@returnValue 003C                        _I2C_MasterEnableRestart 1A5A  
                                        pclath 0FFA                                          tablat 0FF5  
                             ?_I2C_SetCallback 002C                   I2C_SetAddressNackCallback@cb 0031  
                                        status 0FD8                              ?_I2C_DO_SEND_STOP 002C  
                           ??_I2C_DO_SEND_STOP 002C                __end_of_EXT_EEPROM_24C02C_write 196A  
                     fp__rd1RegCompleteHandler 0000                                __initialization 1934  
                                 __end_of_main 12A0                       fp__wr1RegCompleteHandler 0000  
                    ?_I2C_DO_SEND_RESTART_READ 002C                                 ??_EUSART_Write 002C  
                               ?_I2C_DO_RX_ACK 002C                                         ??_main 0043  
                            ?_I2C_MasterIsNack 002C                                  __activetblptr 0003  
                            ?_I2C_MasterSetIrq 002C                             ??_I2C_MasterIsNack 002C  
                           ??_I2C_MasterSetIrq 002C              _EUSART_DefaultFramingErrorHandler 0000  
                   _EUSART_OverrunErrorHandler 0049                __end_of_I2C_CallbackReturnReset 1A52  
                                       _EEADRH 0FAA                                         _EEDATA 0FA8  
                                       _EECON2 0FA7                  I2C_SetDataCompleteCallback@cb 0031  
                                       _ANSELH 0F7F                                   ??_I2C_Poller 003B  
                                       _TABLAT 0FF5                                         _OSCCON 0FD3  
                  ??_RTC_DS1307_receive_values 0040                                         _SPBRGH 0FB0  
                                       _SSPADD 0FC8                                         _SSPBUF 0FC9  
                          _I2C_MasterGetRxData 1A46                               _RTC_DS1307_print 1396  
                                _I2C_MasterFsm 1564                                         clear_0 193A  
                            I2C_SetCallback@cb 002C                        fp__I2C_DO_SEND_ADR_READ 0000  
                       ?_I2C_Read1ByteRegister 003D                                         isa$std 0001  
                                _I2C_SetBuffer 1856                             __end_of_I2C_Poller 1894  
                 __end_of_I2C_MasterDisableIrq 1A66                            _I2C_DO_ADDRESS_NACK 15CC  
                         ?_I2C_MasterGetRxData 002C                                      ?_I2C_Open 002C  
           __end_of_I2C_SetAddressNackCallback 18DE                     _I2C_SetAddressNackCallback 18C6  
                                 __mediumconst 0000                                         tblptrh 0FF7  
                                       tblptrl 0FF6                                         tblptru 0FF8  
                    ??_I2C_MasterEnableRestart 002C                              _SYSTEM_Initialize 1946  
                                   __accesstop 0060                        __end_of__initialization 1940  
                          _I2C_MasterOperation 1630                             ?_SYSTEM_Initialize 002C  
                                ___rparam_used 0001                           ?_I2C_DO_ADDRESS_NACK 002C  
                      _rdBlkRegCompleteHandler 1672                     fp__rdBlkRegCompleteHandler 0000  
                               __pcstackCOMRAM 002C                                 ?_I2C_MasterFsm 002C  
                              ??_I2C_DO_RX_ACK 002C                         _I2C_CallbackReturnStop 1A52  
                          ??_SYSTEM_Initialize 002E         RTC_DS1307_receive_values@slave_address 0040  
                    _RTC_DS1307_receive_values 12A0                                 ?_I2C_SetBuffer 002C  
                      ?_I2C_MasterWaitForEvent 002C                  __end_of_I2C_DO_SEND_ADR_WRITE 199A  
                   ?_I2C_DO_SEND_RESTART_WRITE 002C                           ?_I2C_MasterOperation 002C  
                        ??_I2C_MasterGetRxData 002C                        ?_I2C_Write1ByteRegister 003D  
                                   ??_I2C_Open 002C                     __end_of_I2C_MasterClearIrq 1A6E  
              ??_EUSART_SetOverrunErrorHandler 002E                      __end_of_SYSTEM_Initialize 1958  
                            _I2C_MasterSendAck 1A36                           __end_of_EUSART_Write 190C  
                                ??_I2C_DO_IDLE 002C                                  ??_I2C_DO_RCEN 002C  
                __end_of_rd2RegCompleteHandler 17B2                   __end_of_I2C_MasterSendTxData 1A36  
                           ?_I2C_MasterSendAck 002C                              _I2C_MasterStartRx 1A4A  
                                   __pnvCOMRAM 0047                          ??_I2C_DO_ADDRESS_NACK 0037  
                __end_of_wr2RegCompleteHandler 180A                            _I2C_DO_RX_NACK_STOP 19FE  
                        _rd1RegCompleteHandler 17B2                             ?_I2C_MasterStartRx 002C  
                   __end_of_I2C_MasterSendNack 1A42                          _wr1RegCompleteHandler 175A  
                          ??_I2C_MasterSendAck 002C                       rd1RegCompleteHandler@ptr 0035  
                  __end_of_I2C_DO_SEND_RESTART 1A1E                                _I2C_DO_TX_EMPTY 131C  
                          I2C_SetBuffer@buffer 002C                 __end_of_I2C_MasterWaitForEvent 198C  
                          ??_I2C_MasterStartRx 002C                                        _BAUDCON 0FB8  
                        ??_I2C_MasterOperation 003B                 I2C_SetDataCompleteCallback@ptr 0033  
               __end_of_I2C_Write1ByteRegister 1564                       ??_I2C_DO_RX_NACK_RESTART 002C  
                          _EUSART_Write_String 16F0              __end_of_I2C_DO_SEND_RESTART_WRITE 1A26  
                         ?_I2C_DO_RX_NACK_STOP 002C              TEMPSENSOR_TC47_Read@slave_address 0040  
                                      _TBLPTRH 0FF7                                        _TBLPTRL 0FF6  
                                      _TBLPTRU 0FF8                      __end_of_I2C_MasterSendAck 1A3C  
                                      _OSCTUNE 0F9B                       ??_EUSART_SetErrorHandler 002E  
                                      _SSPCON1 0FC6                                        _SSPCON2 0FC5  
                                      _SSPSTAT 0FC7                      __end_of_I2C_MasterStartRx 1A4E  
                         I2C_Close@returnValue 002C                   ?_I2C_SetDataCompleteCallback 0031  
                                    _I2C_DO_RX 10F0                                      _I2C_DO_TX 1032  
             __end_of_I2C_DO_SEND_RESTART_READ 1A2E                   I2C_Read1ByteRegister@address 003E  
                                    _I2C_Close 180A                           ?_EUSART_Write_String 002D  
                    ??_rdBlkRegCompleteHandler 0037           EXT_EEPROM_24C02C_write@slave_address 0042  
                         _I2C_MasterDisableIrq 1A62                                ??_I2C_MasterFsm 0039  
                                      __Hparam 0000                                        __Lparam 0000  
                          __end_of_I2C_DO_IDLE 19EE                            __end_of_I2C_DO_RCEN 19E4  
                              ??_I2C_SetBuffer 0030                   __end_of_TEMPSENSOR_TC47_Read 18AE  
                      I2C_SetBuffer@bufferSize 002E                                   __psmallconst 1000  
                  EXT_EEPROM_24C02C_write@data 0041                                 _I2C_MasterOpen 1834  
                                      __pcinit 1934                                 _I2C_MasterStop 1A56  
                               _I2C_Initialize 190C                                        __ramtop 1000  
                                      __ptext0 1220                                        __ptext1 1894  
                                      __ptext2 1946                                        __ptext3 172A  
                                      __ptext4 19A8                                        __ptext5 190C  
                                      __ptext6 16B2                                        __ptext7 19B2  
                                      __ptext8 19BC                                        __ptext9 19C6  
                        ??_I2C_DO_RX_NACK_STOP 002C                          _OSCILLATOR_Initialize 19A8  
                           I2C_SetCallback@idx 0030                       ??_PIN_MANAGER_Initialize 002C  
                I2C_CallbackReturnReset@funPtr 0035                             I2C_SetCallback@ptr 002E  
                     wr1RegCompleteHandler@ptr 0035            EXT_EEPROM_24C02C_read@slave_address 0041  
                    I2C_Write1ByteRegister@reg 003D                       fp__I2C_DO_SEND_ADR_WRITE 0000  
                     __end_of_RTC_DS1307_print 140C                           end_of_initialization 1940  
                                   ?_I2C_DO_RX 002C                                     ?_I2C_DO_TX 002C  
        __end_of_EUSART_SetOverrunErrorHandler 19BC                  _EUSART_SetOverrunErrorHandler 19B2  
                        ??_EUSART_Write_String 002F                                     ?_I2C_Close 002C  
                       ?_rd1RegCompleteHandler 0035                        __end_of_I2C_DO_TX_EMPTY 1396  
                        ?_I2C_MasterDisableIrq 002C                              _EUSART_Initialize 16B2  
                       ?_wr1RegCompleteHandler 0035                       fp__rd2RegCompleteHandler 0000  
                           ?_EUSART_Initialize 002C                                      _RCSTAbits 0FAB  
                                      postdec2 0FDD                        ??_I2C_Read1ByteRegister 003E  
                               _BCD_UART_Print 18AE                         __end_of_I2C_MasterOpen 1856  
                     fp__wr2RegCompleteHandler 0000                                        postinc0 0FEE  
                                      postinc2 0FDE                         __end_of_I2C_MasterStop 1A5A  
                       __end_of_I2C_Initialize 1920                      fp__I2C_CallbackReturnStop 0000  
                          ??_EUSART_Initialize 002E                __end_of_rdBlkRegCompleteHandler 16B2  
                         _I2C_MasterSendTxData 1A2E                                fp__I2C_DO_RESET 0000  
                  ?_I2C_SetAddressNackCallback 0031                        _EXT_EEPROM_24C02C_write 1958  
                     ??_EXT_EEPROM_24C02C_read 0041                      __end_of_EUSART_Initialize 16F0  
                                  _I2C_DO_IDLE 19E4                                    _I2C_DO_RCEN 19DA  
                   rdBlkRegCompleteHandler@ptr 0035                  I2C_Write1ByteRegister@address 003F  
                                    _TXSTAbits 0FAC                        ?_I2C_CallbackReturnStop 0035  
                     _I2C_DO_SEND_RESTART_READ 1A26                         __end_of_BCD_UART_Print 18C6  
                  fp__I2C_DO_SEND_RESTART_READ 0000                   I2C_CallbackReturnStop@funPtr 0035  
                              ?_I2C_MasterOpen 002C                                ?_I2C_MasterStop 002C  
                              ?_I2C_Initialize 002C                        _I2C_CallbackReturnReset 1A4E  
                     I2C_Read1ByteRegister@reg 003D                     fp__I2C_CallbackReturnReset 0000  
                   _EUSART_DefaultErrorHandler 0000                                   _EUSART_Write 18F6  
                        ?_I2C_MasterSendTxData 002C                         ?_OSCILLATOR_Initialize 002C  
                  ??_I2C_DO_SEND_RESTART_WRITE 002C                            start_initialization 1934  
                                ?_I2C_DO_RESET 002C        EXT_EEPROM_24C02C_write@location_address 0040  
                                  ??_I2C_DO_RX 0037                                    ??_I2C_DO_TX 0037  
                         _TEMPSENSOR_TC47_Read 1894                              ??_I2C_MasterClose 002C  
                           main@Temp_Set_Value 0046                         ??_I2C_MasterDisableIrq 002C  
                                  ??_I2C_Close 002C                              ??_I2C_MasterStart 002C  
                            ??_I2C_MasterWrite 003D                 __end_of_I2C_CallbackReturnStop 1A56  
                       _I2C_DO_RX_NACK_RESTART 19F6                               ?_I2C_DO_TX_EMPTY 002C  
                           main@TempSensor_Val 0045                             _I2C_MasterClearIrq 1A6A  
               ?_EUSART_SetOverrunErrorHandler 002C                                ?_BCD_UART_Print 002C  
                   _EUSART_FramingErrorHandler 004B                         _EUSART_SetErrorHandler 19C6  
                          ?_I2C_MasterClearIrq 002C                    __end_of_I2C_MasterGetRxData 1A4A  
                        __end_of_I2C_DO_RX_ACK 1A0E                               _I2C_DO_SEND_STOP 1A0E  
                            ??_I2C_SetCallback 0030                            I2C_Open@returnValue 002D  
                           _I2C_MasterSendNack 1A3C                       ?_I2C_MasterEnableRestart 002C  
                            _i2c_fsmStateTable 1001                         fp__I2C_DO_SEND_RESTART 0000  
                    ??_EXT_EEPROM_24C02C_write 0042                          _I2C_DO_SEND_ADR_WRITE 198C  
                                  __pbssCOMRAM 0001                  RTC_DS1307_print@slave_address 0041  
                               ??_I2C_DO_RESET 002C                     EXT_EEPROM_24C02C_read@data 0042  
                          ?_I2C_MasterSendNack 002C                   __end_of_I2C_DO_SEND_ADR_READ 19A8  
                         ??_I2C_MasterClearIrq 002C                    __end_of_I2C_DO_ADDRESS_NACK 1630  
                        ?_TEMPSENSOR_TC47_Read 002C                               _I2C_MasterIsNack 1920  
                    _I2C_DO_SEND_RESTART_WRITE 1A1E                               _I2C_MasterSetIrq 1A42  
                        _rd2RegCompleteHandler 1786                         _PIN_MANAGER_Initialize 172A  
                        _wr2RegCompleteHandler 17DE                      ??_I2C_CallbackReturnReset 0037  
                  __end_of_I2C_MasterOperation 1672                           ??_I2C_MasterSendNack 002C  
                     rd2RegCompleteHandler@ptr 0035                         ??_I2C_MasterSendTxData 002C  
                    __end_of_i2c_fsmStateTable 1021                                   fp__I2C_DO_RX 0000  
                                 fp__I2C_DO_TX 0000                                    __smallconst 1000  
                      I2C_MasterOperation@read 003B                                       _I2C_Open 1194  
                            ?_RTC_DS1307_print 002C                        ??_rd1RegCompleteHandler 0037  
                           ??_RTC_DS1307_print 0041                        ??_wr1RegCompleteHandler 0037  
       EUSART_SetErrorHandler@interruptHandler 002C                                       _PIE1bits 0F9D  
                            _eusartRxLastError 002B                                       _PIR1bits 0F9E  
              ??_EUSART_SetFramingErrorHandler 002E                                       _PIR2bits 0FA1  
                        __end_of_I2C_MasterFsm 15CC                             BCD_UART_Print@data 002D  
                  __end_of_I2C_DO_RX_NACK_STOP 1A06              _EUSART_DefaultOverrunErrorHandler 0000  
              __end_of_I2C_MasterEnableRestart 1A5E                                 fp__I2C_DO_IDLE 0000  
                               fp__I2C_DO_RCEN 0000                  __end_of_I2C_Read1ByteRegister 14F6  
                        __end_of_I2C_SetBuffer 1878                         _EXT_EEPROM_24C02C_read 196A  
                       ?_I2C_DO_SEND_ADR_WRITE 002C                       I2C_MasterSendTxData@data 002C  
                     wr2RegCompleteHandler@ptr 0035                    __end_of_EUSART_Write_String 172A  
                       ??_TEMPSENSOR_TC47_Read 0040                                    _INTCON2bits 0FF1  
                   ??_I2C_DO_SEND_RESTART_READ 002C                       ?_rdBlkRegCompleteHandler 0035  
                                   _I2C_Poller 1878                                     _I2C_Status 0001  
                                 ?_I2C_DO_IDLE 002C                                   ?_I2C_DO_RCEN 002C  
                       ?_rd2RegCompleteHandler 0035                                     _EECON1bits 0FA6  
                             ??_I2C_MasterOpen 002C                         ?_wr2RegCompleteHandler 0035  
                             ??_I2C_MasterStop 002C                       ??_I2C_MasterWaitForEvent 002C  
                             ??_I2C_Initialize 002C                      fp__I2C_DO_RX_NACK_RESTART 0000  
                                     __Hrparam 0000                                       __Lrparam 0000  
                         __end_of_I2C_DO_RESET 19DA                       ??_I2C_Write1ByteRegister 003F  
                      ??_OSCILLATOR_Initialize 002C                            _EUSART_ErrorHandler 0047  
                         _I2C_DO_SEND_ADR_READ 199A               I2C_Read1ByteRegister@returnValue 003F  
                              _I2C_MasterClose 1A66                  I2C_SetAddressNackCallback@ptr 0033  
                              I2C_Open@address 002C                            fp__I2C_DO_SEND_STOP 0000  
                              _I2C_MasterStart 1A5E                                _I2C_MasterWrite 19EE  
                                     __ptext10 1396                                       __ptext11 12A0  
                                     __ptext20 1194                                       __ptext12 16F0  
                                     __ptext21 1834                                       __ptext13 18AE  
                                     __ptext30 19FE                                       __ptext22 19EE  
                                     __ptext14 18F6                                       __ptext31 1A06  
                                     __ptext23 1630                                       __ptext15 1958  
                                     __ptext40 199A                                       __ptext32 1A0E  
                                     __ptext24 1878                                       __ptext16 14F6  
                                     __ptext41 19E4                                       __ptext33 1A16  
                                     __ptext25 197C                                       __ptext17 196A  
                                     __ptext50 1A4E                                       __ptext42 131C  
                                     __ptext34 1A1E                                       __ptext26 1564  
                                     __ptext18 1482                                       __ptext51 1A52  
                                     __ptext43 1A42                                       __ptext35 1A26  
                                     __ptext27 15CC                                       __ptext19 18C6  
                                     __ptext60 1A56                                       __ptext52 1672  
                                     __ptext44 1920                                       __ptext36 19DA  
                                     __ptext28 19D0                                       __ptext61 1A5A  
                                     __ptext53 175A                                       __ptext45 1A2E  
                                     __ptext37 10F0                                       __ptext29 19F6  
                                     __ptext62 1A5E                                       __ptext54 1786  
                                     __ptext46 1A36                                       __ptext38 1032  
                                     __ptext63 180A                                       __ptext55 17B2  
                                     __ptext47 1A46                                       __ptext39 198C  
                                     __ptext64 1A62                                       __ptext56 17DE  
                                     __ptext48 1A3C                                       __ptext65 1A66  
                                     __ptext57 18DE                                       __ptext49 1A4A  
                                     __ptext66 1A6A                                       __ptext58 140C  
                                     __ptext67 0000                                       __ptext59 1856  
          __end_of_I2C_SetDataCompleteCallback 18F6                    _I2C_SetDataCompleteCallback 18DE  
                      ?_I2C_DO_RX_NACK_RESTART 002C                               ??_BCD_UART_Print 002D  
                     __end_of_I2C_DO_SEND_STOP 1A16                        ?_EUSART_SetErrorHandler 002C  
                              _I2C_SetCallback 140C                  ??_I2C_SetDataCompleteCallback 0035  
                   I2C_Write1ByteRegister@data 003E  EUSART_SetOverrunErrorHandler@interruptHandler 002C  
                                     isa$xinst 0000                          ?_I2C_DO_SEND_ADR_READ 002C  
        __end_of_EUSART_SetFramingErrorHandler 19C6                  _EUSART_SetFramingErrorHandler 19BC  
                     __end_of_I2C_MasterIsNack 1934                       __end_of_I2C_MasterSetIrq 1A46  
                                   _INTCONbits 0FF2                 __end_of_I2C_DO_RX_NACK_RESTART 19FE  
                                  ?_I2C_Poller 002C                     ?_RTC_DS1307_receive_values 002C  
                      ?_PIN_MANAGER_Initialize 002C                 __end_of_EUSART_SetErrorHandler 19D0  
                          _I2C_DO_SEND_RESTART 1A16                         fp__I2C_DO_ADDRESS_NACK 0000  
EUSART_SetFramingErrorHandler@interruptHandler 002C                        __end_of_I2C_MasterClose 1A6A  
                    TEMPSENSOR_TC47_Read@value 0041                             fp__I2C_DO_TX_EMPTY 0000  
                      __end_of_I2C_MasterStart 1A62                        __end_of_I2C_MasterWrite 19F6  
                                 _rtc_received 0025                           ?_I2C_DO_SEND_RESTART 002C  
                                  _SSPCON1bits 0FC6                                    _SSPCON2bits 0FC5  
                       EUSART_Write_String@str 002D                             EUSART_Write@txData 002C  
                      __end_of_I2C_SetCallback 1482                 __end_of_PIN_MANAGER_Initialize 175A  
                __end_of_rd1RegCompleteHandler 17DE                               fp__I2C_DO_RX_ACK 0000  
            __end_of_RTC_DS1307_receive_values 131C                  __end_of_wr1RegCompleteHandler 1786  
